(dp0
S'BRS-BROR E608'
p1
S'Za'
p2
sS'ZH-V360'
p3
S'Za'
p4
sS'ACM-iPhone OS'
p5
S'Ce'
p6
sS'TY-D178'
p7
S'Zb'
p8
sS'CHD-ChanghongC01'
p9
S'Zb'
p10
sS'LG-C820'
p11
S'Zc'
p12
sS'SCH-SM G3589W'
p13
S'Dc'
p14
sS'HW-HUAWEI Y560 CL00'
p15
S'Ab'
p16
sS'NOK-8208i'
p17
S'Zc'
p18
sS'YFZ-EPHONE 6S'
p19
S'Za'
p20
sS'YL-CP298'
p21
S'Ld'
p22
sS'DZD-EC600'
p23
S'Zc'
p24
sS'XL-Namo A530+'
p25
S'Zb'
p26
sS'HW-HUAWEI CRR CL00'
p27
S'Ae'
p28
sS'HC-D600'
p29
S'Zb'
p30
sS'HS-E200T'
p31
S'Ta'
p32
sS'HW-C8817D'
p33
S'Ac'
p34
sS'MMB-TX1'
p35
S'Zc'
p36
sS'HW-HUAWEI TAG CL00'
p37
S'Ab'
p38
sS'XD-US688'
p39
S'Za'
p40
sS'TY-F6310'
p41
S'Za'
p42
sS'MOTOR-K2'
p43
S'Vb'
p44
sS'BK-Coobe V800'
p45
S'Za'
p46
sS'SCH-S559'
p47
S'Db'
p48
sS'GX-CF188'
p49
S'Za'
p50
sS'BRS-BROR W58'
p51
S'Za'
p52
sS'HW-FRD AL00'
p53
S'Ae'
p54
sS'SJX-CIYO V6'
p55
S'Za'
p56
sS'AMO-V300'
p57
S'Zc'
p58
sS'FDT-C8'
p59
S'Za'
p60
sS'SJX-CIYO V2'
p61
S'Za'
p62
sS'ZLK-VEVA T100'
p63
S'Zc'
p64
sS'FDT-C6'
p65
S'Za'
p66
sS'SN-SENAP A35'
p67
S'Zb'
p68
sS'SYS-UE66'
p69
S'Za'
p70
sS'TY-D775'
p71
S'Zc'
p72
sS'LNV-Lenovo A375e'
p73
S'Ja'
p74
sS'HYW-HYWY H020'
p75
S'Za'
p76
sS'BW-BenWee 550'
p77
S'Za'
p78
sS'HTC-T328d'
p79
S'Nc'
p80
sS'HS-Hisense C1'
p81
S'Td'
p82
sS'YCT-TC212'
p83
S'Za'
p84
sS'XTY-X100A'
p85
S'Za'
p86
sS'SCH-SM N9200'
p87
S'Df'
p88
sS'SCH-B189'
p89
S'Da'
p90
sS'YL-SK3 01'
p91
S'Lc'
p92
sS'ZTE-C170'
p93
S'Ia'
p94
sS'HX-HE N200'
p95
S'Za'
p96
sS'ZTE-C172'
p97
S'Ia'
p98
sS'ZTE-BA601'
p99
S'Ia'
p100
sS'SCH-W309'
p101
S'Db'
p102
sS'ACM-A6S+'
p103
S'Cf'
p104
sS'HC-HE N610E'
p105
S'Zb'
p106
sS'LG-KG90'
p107
S'Zc'
p108
sS'GX-CF568'
p109
S'Za'
p110
sS'SCH-S319'
p111
S'Db'
p112
sS'SCH-F509'
p113
S'Db'
p114
sS'LG-KW838'
p115
S'Xd'
p116
sS'DC-DCT E326'
p117
S'Zb'
p118
sS'SCH-E319'
p119
S'Da'
p120
sS'XHY-weiimi X5'
p121
S'Zc'
p122
sS'BLF-LE101'
p123
S'Za'
p124
sS'KON-MTS918'
p125
S'Zc'
p126
sS'HW-C3105'
p127
S'Aa'
p128
sS'VIV-vivo Xplay5A'
p129
S'Qe'
p130
sS'HW-C3100'
p131
S'Aa'
p132
sS'YL-Coolpad V1 C'
p133
S'Le'
p134
sS'TW-TONEWIN E60'
p135
S'Za'
p136
sS'HJ-S007'
p137
S'Zc'
p138
sS'ZTE-C350'
p139
S'Ia'
p140
sS'JM-NAIDE XG862'
p141
S'Zb'
p142
sS'TW-TONEWIN E66'
p143
S'Za'
p144
sS'SX-Capitel H100'
p145
S'Zc'
p146
sS'TCL-J210C'
p147
S'Sa'
p148
sS'SXD-A528'
p149
S'Za'
p150
sS'DPD-S900c'
p151
S'Zd'
p152
sS'TCL-C218'
p153
S'Sa'
p154
sS'SYX-EINPAD Q1'
p155
S'Zd'
p156
sS'GX-CF168'
p157
S'Za'
p158
sS'SCH-W279'
p159
S'Da'
p160
sS'MZ-M578CE'
p161
S'Fa'
p162
sS'ZTE-CR510'
p163
S'Ic'
p164
sS'TW-TONEWIN EG68'
p165
S'Za'
p166
sS'YL-Coolpad 5860'
p167
S'Lb'
p168
sS'ZHT-HT 630'
p169
S'Za'
p170
sS'HL-Q660+'
p171
S'Zc'
p172
sS'ZHT-HT 560'
p173
S'Za'
p174
sS'YFZ-E66V'
p175
S'Zb'
p176
sS'RIM-BlackBerry 9930'
p177
S'Zf'
p178
sS'YFZ-E66C'
p179
S'Za'
p180
sS'CHL-LT50'
p181
S'Ub'
p182
sS'YL-Coolpad 5891Q'
p183
S'Lb'
p184
sS'XMP-2014812'
p185
S'Eb'
p186
sS'ZTE-N9180'
p187
S'Ic'
p188
sS'YCT-CT C500'
p189
S'Za'
p190
sS'YFZ-EPHONE E61V'
p191
S'Za'
p192
sS'BK-Coobe A511'
p193
S'Za'
p194
sS'XY-Q603'
p195
S'Zb'
p196
sS'ACM-A5S'
p197
S'Ce'
p198
sS'TW-UC520'
p199
S'Za'
p200
sS'TCL-J636D+'
p201
S'Sb'
p202
sS'XMP-2013021'
p203
S'Ec'
p204
sS'LNV-Lenovo X3c70'
p205
S'Jd'
p206
sS'BD-Bird C788E'
p207
S'Zb'
p208
sS'XLJ-20151129Q'
p209
S'Za'
p210
sS'XMP-2013028'
p211
S'Eb'
p212
sS'ACM-A5C'
p213
S'Ce'
p214
sS'HS-E912S'
p215
S'Ta'
p216
sS'YFZ-EPHONE E618'
p217
S'Za'
p218
sS'TY-F6319'
p219
S'Za'
p220
sS'CFZ-OKAY i707'
p221
S'Za'
p222
sS'ZTE-D90+'
p223
S'Ic'
p224
sS'HS-Hisense F30'
p225
S'Tc'
p226
sS'HS-Hisense F31'
p227
S'Tc'
p228
sS'ZTE-GH300C'
p229
S'Ic'
p230
sS'NT-NT881'
p231
S'Za'
p232
sS'SCH-SM G9350'
p233
S'Df'
p234
sS'SZX-ZTE C GA200'
p235
S'Zc'
p236
sS'SHT-HTT H358'
p237
S'Za'
p238
sS'HP-HONGPAI V1'
p239
S'Zb'
p240
sS'TLT-LT S12'
p241
S'Zc'
p242
sS'QY-YUWIN 8088B'
p243
S'Za'
p244
sS'ZTE-C R182'
p245
S'Ia'
p246
sS'SCH-i579i'
p247
S'Zc'
p248
sS'KXD-C606'
p249
S'Za'
p250
sS'SHP-SH803T'
p251
S'Zd'
p252
sS'NOK-Nokia 610C'
p253
S'Zb'
p254
sS'STW-TW2013'
p255
S'Zd'
p256
sS'YKT-P8600'
p257
S'Zd'
p258
sS'YFZ-EPHONE A18'
p259
S'Za'
p260
sS'CHL-S9388S'
p261
S'Ua'
p262
sS'TL-Twin T89'
p263
S'Za'
p264
sS'HS-C127'
p265
S'Ta'
p266
sS'YFZ-EPHONE A16'
p267
S'Zb'
p268
sS'YFZ-EPHONE A10'
p269
S'Za'
p270
sS'GX-EF98A'
p271
S'Za'
p272
sS'KON-KC309'
p273
S'Za'
p274
sS'TCL-P668L'
p275
S'Sb'
p276
sS'YL-Coolpad D23'
p277
S'Lb'
p278
sS'BK-Coobe A181'
p279
S'Za'
p280
sS'BK-Coobe A180'
p281
S'Za'
p282
sS'ZY-FLY K300'
p283
S'Za'
p284
sS'HW-HUAWEI Y600D C00'
p285
S'Ab'
p286
sS'HL-E573'
p287
S'Za'
p288
sS'BW-BenWee E8'
p289
S'Za'
p290
sS'HS-C127A'
p291
S'Ta'
p292
sS'QL-E630'
p293
S'Za'
p294
sS'SW-Q68'
p295
S'Zc'
p296
sS'CZ-YQ607'
p297
S'Zc'
p298
sS'HS-EG936D'
p299
S'Ta'
p300
sS'YL-8681 A01'
p301
S'Lc'
p302
sS'GX-EF828'
p303
S'Zb'
p304
sS'SHP-SH7218T'
p305
S'Zc'
p306
sS'GX-EF310'
p307
S'Za'
p308
sS'ZBH-BIHEE C40'
p309
S'Za'
p310
sS'SCH-SM G3509I'
p311
S'Db'
p312
sS'MYJ-MY E66'
p313
S'Za'
p314
sS'MYJ-MY E67'
p315
S'Za'
p316
sS'BLW-VD895'
p317
S'Zb'
p318
sS'YL-Coolpad 5263'
p319
S'La'
p320
sS'TCL-T18'
p321
S'Sc'
p322
sS'YL-Coolpad 5261'
p323
S'La'
p324
sS'BLW-VD890'
p325
S'Zc'
p326
sS'JPL-C268'
p327
S'Za'
p328
sS'TG-Leimone7100'
p329
S'Za'
p330
sS'HW-HUAWEI S8520'
p331
S'Aa'
p332
sS'HX-HE N819'
p333
S'Zb'
p334
sS'HTC-T9199'
p335
S'Ne'
p336
sS'OKW-A120'
p337
S'Za'
p338
sS'HW-C5080'
p339
S'Ab'
p340
sS'SAF-Philips D633'
p341
S'Zc'
p342
sS'SCH-I939I'
p343
S'Dd'
p344
sS'NUB-NX508J'
p345
S'Ke'
p346
sS'SCH-I939D'
p347
S'De'
p348
sS'CHL-N3600'
p349
S'Uc'
p350
sS'JM-Z189'
p351
S'Za'
p352
sS'SCH-W689'
p353
S'Dd'
p354
sS'XD-US668'
p355
S'Zc'
p356
sS'YFZ-EPHONE bee 5S'
p357
S'Zb'
p358
sS'HS-EG60'
p359
S'Tc'
p360
sS'GIO-GiONEE C500'
p361
S'Rb'
p362
sS'YFZ-EPHONE E50C'
p363
S'Za'
p364
sS'DW-DOOV A6'
p365
S'Zc'
p366
sS'LG-CT520'
p367
S'Zc'
p368
sS'SD-TOPOLF T500'
p369
S'Za'
p370
sS'CHL-S9100D'
p371
S'Ua'
p372
sS'HC-H V66E'
p373
S'Zb'
p374
sS'CHL-S9100F'
p375
S'Ua'
p376
sS'BD-C901'
p377
S'Zd'
p378
sS'CHL-S9100S'
p379
S'Ua'
p380
sS'DED-DESAY C699'
p381
S'Za'
p382
sS'HW-C2205'
p383
S'Aa'
p384
sS'YFZ-EPHONE7'
p385
S'Zb'
p386
sS'HW-HUAWEI SC CL00'
p387
S'Ac'
p388
sS'YL-Coolpad S180'
p389
S'La'
p390
sS'ZH-C910'
p391
S'Zc'
p392
sS'CHL-S800'
p393
S'Ua'
p394
sS'HS-E936'
p395
S'Ta'
p396
sS'YL-2718'
p397
S'Lc'
p398
sS'LMJ-E99'
p399
S'Zc'
p400
sS'ZZ-NOSSON S6'
p401
S'Zd'
p402
sS'MOTOR-W150'
p403
S'Va'
p404
sS'ZTE-N988'
p405
S'Id'
p406
sS'ZTE-N986'
p407
S'Ic'
p408
sS'ZTE-N983'
p409
S'Ic'
p410
sS'ZTE-N980'
p411
S'Ic'
p412
sS'ZTE-Q302C'
p413
S'Ib'
p414
sS'YL-CP288'
p415
S'Ld'
p416
sS'XD-U700'
p417
S'Zb'
p418
sS'YX-LA4 S'
p419
S'Zc'
p420
sS'YFZ-E58C'
p421
S'Zb'
p422
sS'GX-CF626'
p423
S'Zb'
p424
sS'LG-KV755'
p425
S'Xd'
p426
sS'GXQ-C568'
p427
S'Zb'
p428
sS'YL-E570'
p429
S'Lc'
p430
sS'MLC-BH Q7'
p431
S'Zb'
p432
sS'KS-KS518E'
p433
S'Za'
p434
sS'SYM-EC66'
p435
S'Za'
p436
sS'SCH-I959'
p437
S'De'
p438
sS'TY-K Touch E688'
p439
S'Zb'
p440
sS'YULONG Coolpad-528'
p441
S'Lb'
p442
sS'BW-BenWee 550S'
p443
S'Za'
p444
sS'HX-F3'
p445
S'Zb'
p446
sS'HX-F1'
p447
S'Zb'
p448
sS'TY-D781'
p449
S'Zc'
p450
sS'KON-EG350'
p451
S'Za'
p452
sS'BRS-BROR W60'
p453
S'Za'
p454
sS'BRS-BROR W61'
p455
S'Za'
p456
sS'BRS-BROR W66'
p457
S'Za'
p458
sS'GSB-JY6506'
p459
S'Zc'
p460
sS'ZTE-CS618'
p461
S'Ia'
p462
sS'BRS-BROR W65'
p463
S'Za'
p464
sS'BRS-BROR W68'
p465
S'Za'
p466
sS'BRS-BROR W69'
p467
S'Za'
p468
sS'YP-S 002'
p469
S'Zc'
p470
sS'JST-J308'
p471
S'Za'
p472
sS'HYW-HYWY H030'
p473
S'Za'
p474
sS'MYJ-MY E5'
p475
S'Za'
p476
sS'HTC-809d'
p477
S'Nf'
p478
sS'LG-C960'
p479
S'Zc'
p480
sS'TL-TWIN T98'
p481
S'Zb'
p482
sS'HS-EG981'
p483
S'Tc'
p484
sS'HS-EG980'
p485
S'Tc'
p486
sS'MZ-M681C'
p487
S'Fb'
p488
sS'ABL-A802b'
p489
S'Za'
p490
sS'FDT-C858'
p491
S'Zb'
p492
sS'DLH-SPL C01'
p493
S'Zb'
p494
sS'TY-D780'
p495
S'Zb'
p496
sS'KM-Kumai 917'
p497
S'Za'
p498
sS'ZBH-BIHEE I100'
p499
S'Za'
p500
sS'LNV-Lenovo A720e'
p501
S'Zc'
p502
sS'PSX-ZY019'
p503
S'Za'
p504
sS'PSX-ZY018'
p505
S'Zb'
p506
sS'ZTE-CS100'
p507
S'Ia'
p508
sS'SCH-F689'
p509
S'Dc'
p510
sS'HL-Q980'
p511
S'Zd'
p512
sS'AMO-V200'
p513
S'Za'
p514
sS'HS-EG98C'
p515
S'Tb'
p516
sS'PSX-ZY016'
p517
S'Za'
p518
sS'GH-ChanghongC03'
p519
S'Za'
p520
sS'SCH-F519'
p521
S'Db'
p522
sS'BD-Bird N760'
p523
S'Zb'
p524
sS'TCL-J320C'
p525
S'Sa'
p526
sS'HC-H V68E'
p527
S'Zb'
p528
sS'TCL-J320D'
p529
S'Sa'
p530
sS'ZH-CHIVA E716'
p531
S'Za'
p532
sS'TY-D788'
p533
S'Zb'
p534
sS'YL-Coolpad 5892 C00'
p535
S'Lb'
p536
sS'SM-Kingpad S600C'
p537
S'Za'
p538
sS'SCH-S169'
p539
S'Da'
p540
sS'NJX-EXUN E666'
p541
S'Za'
p542
sS'LNV-Lenovo K51c78'
p543
S'Jc'
p544
sS'TCL-D920'
p545
S'Sb'
p546
sS'HS-E956Q'
p547
S'Tb'
p548
sS'SCH-F339'
p549
S'Db'
p550
sS'QY-YUWIN C100+'
p551
S'Za'
p552
sS'KON-EG750'
p553
S'Zc'
p554
sS'SKL-DH M60'
p555
S'Ze'
p556
sS'MYJ-MY E86A'
p557
S'Za'
p558
sS'HW-C2808'
p559
S'Aa'
p560
sS'ZH-CHIVA E816'
p561
S'Za'
p562
sS'HW-HUAWEI C2835'
p563
S'Zc'
p564
sS'ZZB-palmd Z5210'
p565
S'Za'
p566
sS'NYG-S9880'
p567
S'Zb'
p568
sS'LG-KV220'
p569
S'Xa'
p570
sS'BW-BenWee N6'
p571
S'Za'
p572
sS'BW-BenWee N7'
p573
S'Za'
p574
sS'YL-Coolpad 5855'
p575
S'Lb'
p576
sS'LG-KV226'
p577
S'Xa'
p578
sS'BW-BenWee N8'
p579
S'Za'
p580
sS'BW-BenWee N9'
p581
S'Za'
p582
sS'YFZ-EPHONE E83'
p583
S'Zb'
p584
sS'YFZ-EPHONE E81'
p585
S'Za'
p586
sS'BW-BenWee N9S'
p587
S'Za'
p588
sS'YFZ-EPHONE E88'
p589
S'Za'
p590
sS'HX-HCG S300'
p591
S'Za'
p592
sS'YCT-TV36'
p593
S'Za'
p594
sS'ZLK-LK86'
p595
S'Zd'
p596
sS'BW-BenWee 5100S'
p597
S'Za'
p598
sS'YL-Coolpad D530'
p599
S'Lb'
p600
sS'YL-Coolpad Y70 C'
p601
S'Lb'
p602
sS'YFZ-EPHONE E6AF'
p603
S'Za'
p604
sS'TY-K Touch E700'
p605
S'Zb'
p606
sS'YL-Coolpad D539'
p607
S'Lb'
p608
sS'BK-Coobe A560'
p609
S'Za'
p610
sS'BLW-VE200'
p611
S'Za'
p612
sS'OB-OPPO 1105'
p613
S'Pc'
p614
sS'YL-8676 A01'
p615
S'Lc'
p616
sS'PXX-C732Lv'
p617
S'Za'
p618
sS'ZTE-N855D+'
p619
S'Ib'
p620
sS'ZYT-ZY 30'
p621
S'Zd'
p622
sS'TB-TPS380E'
p623
S'Za'
p624
sS'XLJ-LA S31'
p625
S'Zc'
p626
sS'Nokia-7088'
p627
S'Zb'
p628
sS'HW-HUAWEI C8550'
p629
S'Aa'
p630
sS'CECT-C828'
p631
S'Zc'
p632
sS'HS-EG617'
p633
S'Tb'
p634
sS'ZTE-C R519'
p635
S'Ia'
p636
sS'ZTE-C R518'
p637
S'Ia'
p638
sS'ZTE-C R516'
p639
S'Ia'
p640
sS'ZTE-C R511'
p641
S'Ic'
p642
sS'FDT-E8'
p643
S'Zb'
p644
sS'TY-B2020C'
p645
S'Za'
p646
sS'HL-H318'
p647
S'Zc'
p648
sS'NOKIA-1265'
p649
S'Za'
p650
sS'YT-UC500'
p651
S'Zb'
p652
sS'KB-C3188'
p653
S'Za'
p654
sS'HW-HUAWEI C199'
p655
S'Ac'
p656
sS'MYJ-MY EG100'
p657
S'Zb'
p658
sS'HW-PLK AL10'
p659
S'Ad'
p660
sS'ZY-FLY N9'
p661
S'Za'
p662
sS'SN-SENAP N20'
p663
S'Zb'
p664
sS'LNV-Lenovo A785e'
p665
S'Jc'
p666
sS'FDT-E9'
p667
S'Zb'
p668
sS'TCL-P308L'
p669
S'Sa'
p670
sS'SHP-SH806T'
p671
S'Ze'
p672
sS'HX-HEG N700'
p673
S'Zb'
p674
sS'AMO-AMOI E700C'
p675
S'Za'
p676
sS'YX-LA E'
p677
S'Zb'
p678
sS'KLX-GK680'
p679
S'Zc'
p680
sS'DXF-EV269'
p681
S'Zc'
p682
sS'ZY-FLY N5'
p683
S'Za'
p684
sS'CW-SC16'
p685
S'Wa'
p686
sS'HW-HUAWEI S8600'
p687
S'Ab'
p688
sS'HW-NEM AL10'
p689
S'Ac'
p690
sS'ZTE-D800'
p691
S'Id'
p692
sS'GXQ-E958'
p693
S'Za'
p694
sS'YFZ-EPHONE A9'
p695
S'Za'
p696
sS'YFZ-EPHONE A8'
p697
S'Za'
p698
sS'LNV-Lenovo K52e78'
p699
S'Jc'
p700
sS'YFZ-EPHONE A5'
p701
S'Zb'
p702
sS'YFZ-EPHONE A6'
p703
S'Zb'
p704
sS'OT-E227C'
p705
S'Sa'
p706
sS'HW-HUAWEI Y535 C00'
p707
S'Ab'
p708
sS'GX-EF818'
p709
S'Zb'
p710
sS'GX-EF819'
p711
S'Zb'
p712
sS'GX-KD88'
p713
S'Zb'
p714
sS'ZTE-C N600+'
p715
S'Ib'
p716
sS'MOT-XT806'
p717
S'Vc'
p718
sS'GX-EF811'
p719
S'Za'
p720
sS'SCH-i839'
p721
S'De'
p722
sS'MOT-XT800'
p723
S'Vd'
p724
sS'YCT-TC109'
p725
S'Zb'
p726
sS'ZTE-GH700C'
p727
S'Ie'
p728
sS'MOT-XT1115'
p729
S'Ve'
p730
sS'HS-HISENSE E260T+'
p731
S'Tb'
p732
sS'OKW-i160'
p733
S'Zb'
p734
sS'CW-Skyworth SE89'
p735
S'Wa'
p736
sS'YL-Coolpad 5219'
p737
S'Lb'
p738
sS'XYD-Quiswise Q300'
p739
S'Zc'
p740
sS'GIO-GiONEE M5'
p741
S'Rd'
p742
sS'JC-KSP8000'
p743
S'Zd'
p744
sS'YL-Coolpad 5213'
p745
S'Lb'
p746
sS'YL-Coolpad 5211'
p747
S'La'
p748
sS'YL-Coolpad 5210'
p749
S'La'
p750
sS'YL-Coolpad 5217'
p751
S'La'
p752
sS'YL-Coolpad 5216'
p753
S'La'
p754
sS'TW-TONEWIN E50'
p755
S'Za'
p756
sS'TLT-LT 812'
p757
S'Za'
p758
sS'HW-C5300'
p759
S'Ab'
p760
sS'ZTE-WP529'
p761
S'Ia'
p762
sS'ZTE-WP528'
p763
S'Ia'
p764
sS'BRS-BROR C5'
p765
S'Za'
p766
sS'VIV-vivo Y37A'
p767
S'Qc'
p768
sS'ACM-SE'
p769
S'Ce'
p770
sS'HS-I630T'
p771
S'Tc'
p772
sS'HS-Hisense E75T'
p773
S'Tc'
p774
sS'TLT-LT E858'
p775
S'Za'
p776
sS'SCH-W699'
p777
S'Df'
p778
sS'TCL-P580L'
p779
S'Sb'
p780
sS'LHG-LH C100'
p781
S'Za'
p782
sS'CHL-N680'
p783
S'Ua'
p784
sS'YL-E210'
p785
S'Ld'
p786
sS'LG-KX256'
p787
S'Zc'
p788
sS'DX-C106'
p789
S'Za'
p790
sS'SHX-S06'
p791
S'Zb'
p792
sS'LG-KX216'
p793
S'Xa'
p794
sS'ZTE-NX501'
p795
S'Ie'
p796
sS'BLW-VE2000'
p797
S'Zb'
p798
sS'LG-KX218'
p799
S'Xa'
p800
sS'SHL-H660'
p801
S'Za'
p802
sS'XD-U16'
p803
S'Za'
p804
sS'XD-U11'
p805
S'Za'
p806
sS'HTC-A510c'
p807
S'Nc'
p808
sS'SQC-GO JL611'
p809
S'Zc'
p810
sS'SQC-GO JL610'
p811
S'Zc'
p812
sS'SQC-GO JL612'
p813
S'Zc'
p814
sS'LNV-S533C'
p815
S'Jb'
p816
sS'HS-Hisense E602T'
p817
S'Tb'
p818
sS'DC-DCT E328'
p819
S'Zb'
p820
sS'SYM-EC99'
p821
S'Za'
p822
sS'TG-Leimone1680'
p823
S'Za'
p824
sS'QY-YUWIN T8'
p825
S'Zd'
p826
sS'GX-CF616'
p827
S'Zb'
p828
sS'GX-CF618'
p829
S'Za'
p830
sS'HL-HT518'
p831
S'Za'
p832
sS'YL-Coolpad N900S'
p833
S'Le'
p834
sS'YFZ-EPHONE 8S'
p835
S'Za'
p836
sS'YL-Coolpad 5216S'
p837
S'La'
p838
sS'TY-K Touch E656+'
p839
S'Zb'
p840
sS'FZ-E189C'
p841
S'Zb'
p842
sS'CHL-N6000'
p843
S'Uc'
p844
sS'OB-OPPO R9 Plusm A'
p845
S'Pd'
p846
sS'JWX-C822'
p847
S'Zb'
p848
sS'YL-C239'
p849
S'Ld'
p850
sS'YL-C238'
p851
S'Lc'
p852
sS'XZY-GC801'
p853
S'Za'
p854
sS'GH-ChanghongC360'
p855
S'Za'
p856
sS'FDT-E18'
p857
S'Za'
p858
sS'FDT-E19'
p859
S'Za'
p860
sS'YFZ-E28C'
p861
S'Za'
p862
sS'FDT-E16'
p863
S'Zb'
p864
sS'SCH-S579'
p865
S'Db'
p866
sS'HW-HUAWEI MT7 CL00'
p867
S'Ae'
p868
sS'HS-E830'
p869
S'Ta'
p870
sS'ZTE-CR200'
p871
S'Ib'
p872
sS'ZTE-CR201'
p873
S'Ib'
p874
sS'HS-E839'
p875
S'Tc'
p876
sS'XLJ-20150523E'
p877
S'Za'
p878
sS'HS-EG970'
p879
S'Tc'
p880
sS'HS-EG971'
p881
S'Tb'
p882
sS'HX-HEG D10'
p883
S'Zb'
p884
sS'YHY-ViewSonic Q3+'
p885
S'Zb'
p886
sS'HS-EG978'
p887
S'Tc'
p888
sS'ZTE-C GA350'
p889
S'Ia'
p890
sS'HYN-BIN01'
p891
S'Za'
p892
sS'OKW-OKWAP A130'
p893
S'Za'
p894
sS'TY-F6209'
p895
S'Za'
p896
sS'TY-F6201'
p897
S'Zc'
p898
sS'TY-F6202'
p899
S'Zc'
p900
sS'TY-F6206'
p901
S'Za'
p902
sS'HX-HE F5'
p903
S'Za'
p904
sS'YL-Coolpad T1'
p905
S'Lc'
p906
sS'LNV-Lenovo S820e'
p907
S'Jc'
p908
sS'BD-Bird F16'
p909
S'Zd'
p910
sS'HW-C5588'
p911
S'Ab'
p912
sS'ZTE-N900D'
p913
S'Ia'
p914
sS'ZTE-CS132'
p915
S'Ia'
p916
sS'ZTE-CS131'
p917
S'Ia'
p918
sS'ZTE-CS130'
p919
S'Ia'
p920
sS'BRS-BROR S9R'
p921
S'Za'
p922
sS'CZ-SM801'
p923
S'Zd'
p924
sS'SCH-F839'
p925
S'Dc'
p926
sS'YL-Coolpad 9900'
p927
S'Le'
p928
sS'FDT-E181'
p929
S'Za'
p930
sS'TG-Leimone E63'
p931
S'Zb'
p932
sS'TLT-LT S800D'
p933
S'Zb'
p934
sS'QY-YUWIN F6'
p935
S'Za'
p936
sS'LNV-Lenovo A3580'
p937
S'Jb'
p938
sS'ZBH-BIHEE I9'
p939
S'Za'
p940
sS'SCH-E339'
p941
S'Da'
p942
sS'TLT-LT 828'
p943
S'Za'
p944
sS'ZBH-BIHEE I5'
p945
S'Za'
p946
sS'TY-K Touch E656'
p947
S'Za'
p948
sS'BRS-BROR W70'
p949
S'Za'
p950
sS'HSC-ASUS X003A'
p951
S'Zc'
p952
sS'LNV-Lenovo A710e'
p953
S'Jb'
p954
sS'HW-C3308'
p955
S'Aa'
p956
sS'HC-HE D530'
p957
S'Za'
p958
sS'GX-CF200'
p959
S'Za'
p960
sS'SCH-S199'
p961
S'Da'
p962
sS'ZTE-B880'
p963
S'Ib'
p964
sS'YCT-C6599'
p965
S'Za'
p966
sS'HW-C3300'
p967
S'Aa'
p968
sS'KON-E360'
p969
S'Za'
p970
sS'SCH-S209'
p971
S'Da'
p972
sS'HX-HEG S600'
p973
S'Zc'
p974
sS'SCH-SM N9009'
p975
S'De'
p976
sS'HS-Hisense I635T'
p977
S'Tb'
p978
sS'ZTE-BV0720'
p979
S'Ib'
p980
sS'HW-HUAWEI C8300'
p981
S'Ad'
p982
sS'SCH-SM J7109'
p983
S'Dc'
p984
sS'WB-V HOPE C5'
p985
S'Za'
p986
sS'HS-Hisense A1'
p987
S'Td'
p988
sS'GX-KINGSUN S5Q'
p989
S'Za'
p990
sS'YFZ-EPHONE E92'
p991
S'Zb'
p992
sS'ZTE-C F500'
p993
S'Ib'
p994
sS'KB-F5188'
p995
S'Zb'
p996
sS'GSB-CA218'
p997
S'Za'
p998
sS'OB-OPPO A53m'
p999
S'Pc'
p1000
sS'SCH-SM G9280'
p1001
S'Df'
p1002
sS'ZBH-BIHEE C5'
p1003
S'Zc'
p1004
sS'OB-OPPO R7c'
p1005
S'Pd'
p1006
sS'HC-N610E'
p1007
S'Zb'
p1008
sS'ZYT-ZY 20'
p1009
S'Zc'
p1010
sS'SCH-W509'
p1011
S'De'
p1012
sS'SCH-F659'
p1013
S'Db'
p1014
sS'SCH-F309'
p1015
S'Db'
p1016
sS'SCH-SM W2014'
p1017
S'Df'
p1018
sS'TCL-C780'
p1019
S'Sa'
p1020
sS'HW-C2829'
p1021
S'Aa'
p1022
sS'KB-C2288'
p1023
S'Za'
p1024
sS'XD-Uniscope S1'
p1025
S'Zb'
p1026
sS'YL-Coolpad 5313S'
p1027
S'Lb'
p1028
sS'SM-KINGPAD S669'
p1029
S'Za'
p1030
sS'SM-KINGPAD S668'
p1031
S'Za'
p1032
sS'BLW-VE65'
p1033
S'Zb'
p1034
sS'BLW-VE63'
p1035
S'Zb'
p1036
sS'FDT-C100'
p1037
S'Za'
p1038
sS'VIV-vivo X7'
p1039
S'Qd'
p1040
sS'MOT-XT1581'
p1041
S'Vf'
p1042
sS'XZQ-CB V300'
p1043
S'Za'
p1044
sS'TY-K Touch E8'
p1045
S'Za'
p1046
sS'HYW-HYWY H010'
p1047
S'Za'
p1048
sS'LNV-i909C'
p1049
S'Jb'
p1050
sS'TY-K Touch E6'
p1051
S'Zb'
p1052
sS'TY-K Touch E7'
p1053
S'Zb'
p1054
sS'VIV-vivo V3M A'
p1055
S'Qc'
p1056
sS'YFZ-EPHONE E6AS'
p1057
S'Za'
p1058
sS'ZTE-C S105'
p1059
S'Ia'
p1060
sS'TX-JY818Q'
p1061
S'Zb'
p1062
sS'LG-KV230'
p1063
S'Xb'
p1064
sS'HS-E90'
p1065
S'Td'
p1066
sS'HX-HEG N719'
p1067
S'Zc'
p1068
sS'LNV-Lenovo A390e'
p1069
S'Jb'
p1070
sS'TCL-S850L'
p1071
S'Sd'
p1072
sS'ZTE-D810'
p1073
S'Ie'
p1074
sS'SCH-W999'
p1075
S'Df'
p1076
sS'BK-Coobe V767'
p1077
S'Za'
p1078
sS'GX-F85'
p1079
S'Za'
p1080
sS'HS-C899'
p1081
S'Tc'
p1082
sS'TCL-P318L'
p1083
S'Sb'
p1084
sS'ZTE-C F290'
p1085
S'Ib'
p1086
sS'GX-EF800'
p1087
S'Zc'
p1088
sS'DX-C916'
p1089
S'Zc'
p1090
sS'OB-OPPO R9m'
p1091
S'Pd'
p1092
sS'BK-Coobe X903'
p1093
S'Za'
p1094
sS'CW-Skyworth SE90'
p1095
S'Wc'
p1096
sS'OB-OPPO A31c'
p1097
S'Pb'
p1098
sS'CHL-S9500F'
p1099
S'Ua'
p1100
sS'BK-Coobe X909'
p1101
S'Zb'
p1102
sS'YCT-F8926'
p1103
S'Zb'
p1104
sS'HW-C2823'
p1105
S'Aa'
p1106
sS'HW-C2822'
p1107
S'Zc'
p1108
sS'HW-C2827'
p1109
S'Aa'
p1110
sS'YL-Coolpad 5200'
p1111
S'La'
p1112
sS'YL-Coolpad Y71 511'
p1113
S'Lb'
p1114
sS'HW-C2828'
p1115
S'Aa'
p1116
sS'GIO-C16'
p1117
S'Ra'
p1118
sS'TY-B2021C'
p1119
S'Zb'
p1120
sS'YHY-ViewSonic L8'
p1121
S'Ze'
p1122
sS'FDT-E500'
p1123
S'Za'
p1124
sS'HC-D520'
p1125
S'Za'
p1126
sS'YFZ-EPHONE E61VS'
p1127
S'Za'
p1128
sS'HS-Q9'
p1129
S'Te'
p1130
sS'PZ-InFocus M810t'
p1131
S'Zd'
p1132
sS'HST-CD801'
p1133
S'Zb'
p1134
sS'YL-E200'
p1135
S'Ld'
p1136
sS'CHL-N690'
p1137
S'Ua'
p1138
sS'HS-E956'
p1139
S'Tb'
p1140
sS'SM-S636'
p1141
S'Zb'
p1142
sS'SAF-Philips D813'
p1143
S'Zc'
p1144
sS'JP-CV120'
p1145
S'Zb'
p1146
sS'SHL-LC301'
p1147
S'Za'
p1148
sS'XD-Uniscope A1'
p1149
S'Zc'
p1150
sS'ZC-ZC500'
p1151
S'Za'
p1152
sS'LG-KX206'
p1153
S'Zc'
p1154
sS'YL-Coolpad S160'
p1155
S'La'
p1156
sS'BD-E890'
p1157
S'Zb'
p1158
sS'HS-C278'
p1159
S'Ta'
p1160
sS'HTC-909d'
p1161
S'Zc'
p1162
sS'STW-TW118'
p1163
S'Za'
p1164
sS'XD-U60'
p1165
S'Zb'
p1166
sS'HS-Hisense E100T'
p1167
S'Ta'
p1168
sS'KM-Kumai 521'
p1169
S'Za'
p1170
sS'DS-E153'
p1171
S'Zc'
p1172
sS'SCH-I339'
p1173
S'Da'
p1174
sS'TCL-P590L'
p1175
S'Sb'
p1176
sS'MOTOR-W170'
p1177
S'Va'
p1178
sS'BK-CB EG198'
p1179
S'Zc'
p1180
sS'ZZB-palmD Z8'
p1181
S'Za'
p1182
sS'ZBH-BIHEE C60'
p1183
S'Za'
p1184
sS'BD-Bird E700'
p1185
S'Za'
p1186
sS'SCH-X989'
p1187
S'Db'
p1188
sS'VIV-vivo X6SPlus A'
p1189
S'Qd'
p1190
sS'HS-X6C'
p1191
S'Tb'
p1192
sS'VIV-vivo X6SPlus D'
p1193
S'Qd'
p1194
sS'RIM-BlackBerry 9630'
p1195
S'Ze'
p1196
sS'SH-Saihon E300+'
p1197
S'Za'
p1198
sS'GX-DF810'
p1199
S'Zb'
p1200
sS'YL-Coolpad 8297 C00'
p1201
S'Lc'
p1202
sS'NUB-NX510J'
p1203
S'Kd'
p1204
sS'GH-ChanghongC770'
p1205
S'Zb'
p1206
sS'XMP-2015561'
p1207
S'Ec'
p1208
sS'DC-DCT E326+'
p1209
S'Zc'
p1210
sS'TQ-VIM E68'
p1211
S'Zc'
p1212
sS'BK-Coobe A510'
p1213
S'Za'
p1214
sS'RY-PA200C'
p1215
S'Za'
p1216
sS'SJX-CIYO V3'
p1217
S'Za'
p1218
sS'SCH-F809'
p1219
S'De'
p1220
sS'HW-HUAWEI W1 C00'
p1221
S'Ab'
p1222
sS'YFZ-EPHONE E29CD'
p1223
S'Za'
p1224
sS'YFZ-EPHONE E29CC'
p1225
S'Za'
p1226
sS'TW-TONEWIN X1'
p1227
S'Zb'
p1228
sS'TW-TONEWIN E560'
p1229
S'Za'
p1230
sS'DED-DESAY C365'
p1231
S'Za'
p1232
sS'NOK-1506'
p1233
S'Za'
p1234
sS'NOK-1508'
p1235
S'Za'
p1236
sS'Dopod-I101C'
p1237
S'Za'
p1238
sS'GH-ChanghongC350'
p1239
S'Zb'
p1240
sS'GH-ChanghongC600'
p1241
S'Zb'
p1242
sS'ZXY-NX512J'
p1243
S'Id'
p1244
sS'BRS-BROR W60+'
p1245
S'Za'
p1246
sS'OKW-C330'
p1247
S'Zc'
p1248
sS'XD-U W2014'
p1249
S'Zd'
p1250
sS'XD-U W2015'
p1251
S'Zd'
p1252
sS'TY-K Touch E65'
p1253
S'Za'
p1254
sS'SHT-HTT H368'
p1255
S'Za'
p1256
sS'TY-B2030C'
p1257
S'Za'
p1258
sS'HS-E820'
p1259
S'Ta'
p1260
sS'ZBH-BIHEE C18'
p1261
S'Za'
p1262
sS'HS-EG966'
p1263
S'Tb'
p1264
sS'SYL-X20'
p1265
S'Za'
p1266
sS'HW-C2008'
p1267
S'Aa'
p1268
sS'HS-EG968'
p1269
S'Tc'
p1270
sS'SW-U705'
p1271
S'Zd'
p1272
sS'FDT-C837'
p1273
S'Zb'
p1274
sS'ZXY-ZTE C X920'
p1275
S'Ib'
p1276
sS'TY-F6219'
p1277
S'Za'
p1278
sS'PXX-E561Lv'
p1279
S'Zb'
p1280
sS'FDT-C29'
p1281
S'Za'
p1282
sS'FDT-C28'
p1283
S'Za'
p1284
sS'LG-KG70'
p1285
S'Zc'
p1286
sS'FDT-C839'
p1287
S'Zc'
p1288
sS'ZTE-J G880'
p1289
S'Ie'
p1290
sS'DT-E3'
p1291
S'Zc'
p1292
sS'LNV-Lenovo Z90 7'
p1293
S'Jd'
p1294
sS'HTC-T327d'
p1295
S'Nc'
p1296
sS'GX-CF550'
p1297
S'Za'
p1298
sS'XD-U105'
p1299
S'Zb'
p1300
sS'XD-U106'
p1301
S'Za'
p1302
sS'XD-U100'
p1303
S'Za'
p1304
sS'XD-U108'
p1305
S'Zc'
p1306
sS'XD-U109'
p1307
S'Zb'
p1308
sS'DMS-i5 1'
p1309
S'Za'
p1310
sS'HW-HUAWEI C8817L'
p1311
S'Ab'
p1312
sS'YL-Coolpad 5218S'
p1313
S'La'
p1314
sS'SCH-SM G7109'
p1315
S'Dd'
p1316
sS'SCH-F539'
p1317
S'Dd'
p1318
sS'HW-HUAWEI C8817E'
p1319
S'Ab'
p1320
sS'YL-Coolpad 5218D'
p1321
S'Lb'
p1322
sS'HW-SCL AL00'
p1323
S'Ab'
p1324
sS'ZTE-N798+'
p1325
S'Ia'
p1326
sS'MOT-W362'
p1327
S'Va'
p1328
sS'YCT-TE520'
p1329
S'Zb'
p1330
sS'ZXH-ZK8650'
p1331
S'Zb'
p1332
sS'SCH-S189'
p1333
S'Da'
p1334
sS'YCT-C6588'
p1335
S'Za'
p1336
sS'YCT-C6589'
p1337
S'Za'
p1338
sS'LNV-Lenovo K30 E'
p1339
S'Jb'
p1340
sS'LNV-Lenovo A5000 E'
p1341
S'Jc'
p1342
sS'DT-E15'
p1343
S'Zb'
p1344
sS'HW-HUAWEI C5070'
p1345
S'Aa'
p1346
sS'YL-Coolpad 5832'
p1347
S'Lb'
p1348
sS'WB-V HOPE 007'
p1349
S'Za'
p1350
sS'XD-U589'
p1351
S'Zb'
p1352
sS'ZTE-N790'
p1353
S'Ia'
p1354
sS'ZHT-HT 600'
p1355
S'Za'
p1356
sS'HXY-hengsing E685'
p1357
S'Za'
p1358
sS'ZTE-C R518S'
p1359
S'Ia'
p1360
sS'ZZB-palmd Z5010'
p1361
S'Za'
p1362
sS'YCT-Q96'
p1363
S'Za'
p1364
sS'HC-HE S720'
p1365
S'Za'
p1366
sS'HW-HUAWEI C6200'
p1367
S'Ab'
p1368
sS'LG-KV800'
p1369
S'Xb'
p1370
sS'HS-Hisense H910'
p1371
S'Td'
p1372
sS'MOT-W562'
p1373
S'Vb'
p1374
sS'ZTE-NX511J'
p1375
S'Ic'
p1376
sS'LNV-Lenovo A700e'
p1377
S'Jb'
p1378
sS'FDT-C862'
p1379
S'Za'
p1380
sS'UT-T66'
p1381
S'Zc'
p1382
sS'UT-T68'
p1383
S'Zc'
p1384
sS'ZTE-N958St'
p1385
S'Ic'
p1386
sS'HW-C7300'
p1387
S'Ac'
p1388
sS'YL-Coolpad 5890'
p1389
S'Lb'
p1390
sS'SA-CHINO E SC1000'
p1391
S'Za'
p1392
sS'QL-CHER A4'
p1393
S'Zb'
p1394
sS'ACM-A6S'
p1395
S'Cf'
p1396
sS'DT-C1600'
p1397
S'Zc'
p1398
sS'XMP-2014910'
p1399
S'Eb'
p1400
sS'BLW-VC380'
p1401
S'Za'
p1402
sS'JB-ES30'
p1403
S'Zb'
p1404
sS'HS-E87'
p1405
S'Tb'
p1406
sS'HS-E86'
p1407
S'Tb'
p1408
sS'KM-Kumai 290'
p1409
S'Za'
p1410
sS'TY-B2022C'
p1411
S'Za'
p1412
sS'HS-E89'
p1413
S'Ta'
p1414
sS'HS-Hisense E50 T'
p1415
S'Tb'
p1416
sS'ZTE-C N760'
p1417
S'Ia'
p1418
sS'FJW-GV2100'
p1419
S'Zc'
p1420
sS'JP-CV11'
p1421
S'Zb'
p1422
sS'BW-BenWee E6+'
p1423
S'Za'
p1424
sS'SCH-i509'
p1425
S'Da'
p1426
sS'YCT-C900'
p1427
S'Za'
p1428
sS'ZTE-D820'
p1429
S'Ie'
p1430
sS'LNV-Lenovo A790e'
p1431
S'Jb'
p1432
sS'ZTE-C V16'
p1433
S'Ia'
p1434
sS'BRS-BROR S9'
p1435
S'Za'
p1436
sS'NJX-EXUN KM 100C'
p1437
S'Za'
p1438
sS'BRS-BROR S3'
p1439
S'Za'
p1440
sS'TCL-J636D'
p1441
S'Sa'
p1442
sS'ZTE-C V18'
p1443
S'Ia'
p1444
sS'SH-Saihon S6'
p1445
S'Za'
p1446
sS'DX-C8100'
p1447
S'Zd'
p1448
sS'BLW-VD685'
p1449
S'Zb'
p1450
sS'SH-Saihon S8'
p1451
S'Zb'
p1452
sS'KON-F60'
p1453
S'Zc'
p1454
sS'BLW-VD680'
p1455
S'Zb'
p1456
sS'YL-Coolpad 5230'
p1457
S'La'
p1458
sS'QL-CHER A809'
p1459
S'Zb'
p1460
sS'QRD-8625Q'
p1461
S'Zc'
p1462
sS'HW-C5320'
p1463
S'Aa'
p1464
sS'HW-CAM AL00'
p1465
S'Ab'
p1466
sS'VIV-vivo Y35A'
p1467
S'Qc'
p1468
sS'ZTE-C R710'
p1469
S'Ic'
p1470
sS'LNV-Lenovo A380e'
p1471
S'Ja'
p1472
sS'SCH-I939'
p1473
S'De'
p1474
sS'XYT-E606'
p1475
S'Zc'
p1476
sS'BW-BenWee S6L'
p1477
S'Za'
p1478
sS'ZTE-N5L'
p1479
S'Ic'
p1480
sS'GX-EF58A'
p1481
S'Za'
p1482
sS'TCL-P586L'
p1483
S'Sb'
p1484
sS'AIG-CG600'
p1485
S'Zc'
p1486
sS'TY-E379'
p1487
S'Zb'
p1488
sS'SHP-SH831T'
p1489
S'Zd'
p1490
sS'SCH-I509U'
p1491
S'Zc'
p1492
sS'TW-TONEWIN S8510'
p1493
S'Zb'
p1494
sS'TY-V958C'
p1495
S'Zc'
p1496
sS'HS-E920'
p1497
S'Tb'
p1498
sS'HS-E926'
p1499
S'Tb'
p1500
sS'HW-F201'
p1501
S'Aa'
p1502
sS'YL-Coolpad 9100'
p1503
S'Lc'
p1504
sS'KE-KT2000'
p1505
S'Zb'
p1506
sS'HS-C268'
p1507
S'Ta'
p1508
sS'HC-C330'
p1509
S'Za'
p1510
sS'CHL-S850'
p1511
S'Ua'
p1512
sS'YX-YUSUN E60'
p1513
S'Za'
p1514
sS'STW-TW108'
p1515
S'Za'
p1516
sS'XD-U72'
p1517
S'Zb'
p1518
sS'SCH-N719U'
p1519
S'Dd'
p1520
sS'HT-168'
p1521
S'Za'
p1522
sS'XD-U77'
p1523
S'Zc'
p1524
sS'XD-U79'
p1525
S'Za'
p1526
sS'STW-TW101'
p1527
S'Za'
p1528
sS'YL-Coolpad 9070'
p1529
S'Ld'
p1530
sS'STW-TW A8'
p1531
S'Zd'
p1532
sS'YP-CF02'
p1533
S'Zd'
p1534
sS'SCH-I699'
p1535
S'Db'
p1536
sS'HTC-D816v'
p1537
S'Nc'
p1538
sS'FDT-FT C601'
p1539
S'Za'
p1540
sS'DS-E189'
p1541
S'Zb'
p1542
sS'MOT-XT681'
p1543
S'Vc'
p1544
sS'GX-DF822'
p1545
S'Zb'
p1546
sS'FDT-FT C609'
p1547
S'Za'
p1548
sS'SM-Kingpad E239'
p1549
S'Za'
p1550
sS'EAS-EJ518'
p1551
S'Za'
p1552
sS'LG-KX300'
p1553
S'Xb'
p1554
sS'YL-Coolpad 5010'
p1555
S'La'
p1556
sS'ZTE-N970'
p1557
S'Ib'
p1558
sS'ZC-ZC600'
p1559
S'Zb'
p1560
sS'CW-Q3'
p1561
S'Wa'
p1562
sS'LNV-i310e'
p1563
S'Jc'
p1564
sS'HW-HUAWEI C8816D'
p1565
S'Ac'
p1566
sS'ZTE-S2004'
p1567
S'Id'
p1568
sS'TL-Twin T88'
p1569
S'Za'
p1570
sS'TCL-TCLCF203C'
p1571
S'Sa'
p1572
sS'JM-NAIDE XG5231'
p1573
S'Zb'
p1574
sS'KL-COMNEED X5'
p1575
S'Zb'
p1576
sS'TY-K Touch E309'
p1577
S'Za'
p1578
sS'YL-Coolpad A8 930'
p1579
S'Ld'
p1580
sS'YL-Coolpad A8 931'
p1581
S'Ld'
p1582
sS'SHT-H539'
p1583
S'Za'
p1584
sS'NOK-Nokia 800C'
p1585
S'Ze'
p1586
sS'MOT-XT889'
p1587
S'Vc'
p1588
sS'TLT-LT928'
p1589
S'Za'
p1590
sS'ZTE-J G79'
p1591
S'Ic'
p1592
sS'YCT-Ctyon X3'
p1593
S'Zb'
p1594
sS'HS-EG950'
p1595
S'Tb'
p1596
sS'FDT-C800'
p1597
S'Za'
p1598
sS'HS-EG958'
p1599
S'Tb'
p1600
sS'YL-Coolpad Y82 900'
p1601
S'Lc'
p1602
sS'KON-KC308'
p1603
S'Za'
p1604
sS'SCH-SM E7009'
p1605
S'Dd'
p1606
sS'TY-F6229'
p1607
S'Za'
p1608
sS'SCH-E139'
p1609
S'Da'
p1610
sS'HW-HUAWEI Y321 C00'
p1611
S'Aa'
p1612
sS'TY-K Touch E99'
p1613
S'Zc'
p1614
sS'BD-Bird EG510'
p1615
S'Zc'
p1616
sS'DAXIAN-M5'
p1617
S'Zb'
p1618
sS'DX-M7'
p1619
S'Zb'
p1620
sS'DX-M6'
p1621
S'Zb'
p1622
sS'DX-M5'
p1623
S'Zb'
p1624
sS'SCH-S359'
p1625
S'Db'
p1626
sS'HS-Hisense F21T'
p1627
S'Tb'
p1628
sS'DC-DCT 518'
p1629
S'Za'
p1630
sS'TY-K Touch E79'
p1631
S'Zb'
p1632
sS'PSX-ZY028'
p1633
S'Za'
p1634
sS'CW-Skyworth EG89'
p1635
S'Wb'
p1636
sS'HK-F7'
p1637
S'Za'
p1638
sS'HK-F6'
p1639
S'Zb'
p1640
sS'HK-F5'
p1641
S'Za'
p1642
sS'SCH-B309'
p1643
S'Da'
p1644
sS'HC-C80'
p1645
S'Zc'
p1646
sS'XD-S6000'
p1647
S'Za'
p1648
sS'KS-KS968'
p1649
S'Zc'
p1650
sS'HW-HUAWEI Y210S'
p1651
S'Aa'
p1652
sS'NOK-3806'
p1653
S'Zb'
p1654
sS'HC-HE D330'
p1655
S'Za'
p1656
sS'TCL-T188'
p1657
S'Sc'
p1658
sS'CHL-S9500'
p1659
S'Uc'
p1660
sS'FDT-E838'
p1661
S'Za'
p1662
sS'SCH-SM G3609'
p1663
S'Db'
p1664
sS'GH-ChanghongC900'
p1665
S'Zb'
p1666
sS'SCH-I639'
p1667
S'Zc'
p1668
sS'WB-V HOPE V918'
p1669
S'Za'
p1670
sS'HW-HUAWEI G610 C00'
p1671
S'Ac'
p1672
sS'RZ-R1100'
p1673
S'Za'
p1674
sS'ZTE-N799D'
p1675
S'Ia'
p1676
sS'SCH-W239'
p1677
S'Dd'
p1678
sS'ZY-FLY S1'
p1679
S'Za'
p1680
sS'ZY-FLY S3'
p1681
S'Zc'
p1682
sS'ZY-FLY S2'
p1683
S'Za'
p1684
sS'YCT-C750'
p1685
S'Za'
p1686
sS'YL-Coolpad 5820'
p1687
S'Lb'
p1688
sS'TY-K Touch Tou ch3es'
p1689
S'Za'
p1690
sS'SCH-SM A9000'
p1691
S'Dd'
p1692
sS'YHY-ViewSonic Q5'
p1693
S'Zc'
p1694
sS'YHY-ViewSonic Q7'
p1695
S'Ze'
p1696
sS'YHY-ViewSonic Q6'
p1697
S'Ze'
p1698
sS'YHY-ViewSonic Q1'
p1699
S'Zc'
p1700
sS'YHY-ViewSonic Q3'
p1701
S'Zb'
p1702
sS'BD-Bird E668'
p1703
S'Zb'
p1704
sS'SLC-W15'
p1705
S'Za'
p1706
sS'FDT-2014'
p1707
S'Zd'
p1708
sS'SCH-SM J3119'
p1709
S'Db'
p1710
sS'HW-C7200'
p1711
S'Aa'
p1712
sS'LNV-Lenovo i316e'
p1713
S'Jb'
p1714
sS'DC-DCT E601f'
p1715
S'Za'
p1716
sS'HW-EVA AL00'
p1717
S'Ad'
p1718
sS'CHL-S8300'
p1719
S'Ua'
p1720
sS'LY-A107'
p1721
S'Zd'
p1722
sS'SAF-Philips D833'
p1723
S'Zd'
p1724
sS'ZTE-C N606'
p1725
S'Ia'
p1726
sS'PZ-IN320'
p1727
S'Zb'
p1728
sS'XD-U199'
p1729
S'Zb'
p1730
sS'ZTE-C N600'
p1731
S'Ib'
p1732
sS'XMP-2013063'
p1733
S'Ec'
p1734
sS'BRS-BROR F5 5'
p1735
S'Zc'
p1736
sS'XMP-2016036'
p1737
S'Eb'
p1738
sS'YL-Coolpad 5956'
p1739
S'Lc'
p1740
sS'YL-Coolpad 5950'
p1741
S'Lc'
p1742
sS'YL-Coolpad 5951'
p1743
S'Lc'
p1744
sS'YL-Coolpad 5952'
p1745
S'Lc'
p1746
sS'SCH-F679'
p1747
S'Dc'
p1748
sS'YL-Coolpad 9250L'
p1749
S'Ld'
p1750
sS'SH-Saihon C200'
p1751
S'Za'
p1752
sS'LNV-Lenovo A890e'
p1753
S'Jc'
p1754
sS'JXD-TQ16'
p1755
S'Zc'
p1756
sS'PSX-ZY016A'
p1757
S'Za'
p1758
sS'NJX-EXUN X10'
p1759
S'Ze'
p1760
sS'XY-Trutalk S6'
p1761
S'Zc'
p1762
sS'NOKIA-1255'
p1763
S'Zb'
p1764
sS'OB-OPPO R9tm'
p1765
S'Pd'
p1766
sS'LNV-Lenovo A770e'
p1767
S'Jb'
p1768
sS'XD-US989'
p1769
S'Zb'
p1770
sS'JB-ES20'
p1771
S'Zb'
p1772
sS'OKW-OKWAP i708'
p1773
S'Za'
p1774
sS'HLT-H606'
p1775
S'Zb'
p1776
sS'TW-S8210'
p1777
S'Zc'
p1778
sS'Dopod-I201C'
p1779
S'Zc'
p1780
sS'SHP-SH630T'
p1781
S'Zc'
p1782
sS'HX-HEG N739'
p1783
S'Zb'
p1784
sS'ZTE-CS200'
p1785
S'Ib'
p1786
sS'YLT-UNC F59C'
p1787
S'Zb'
p1788
sS'ZTE-Q529C'
p1789
S'Ib'
p1790
sS'HW-C7199'
p1791
S'Ab'
p1792
sS'DT-DATANG i88e'
p1793
S'Za'
p1794
sS'CY-SKY E8'
p1795
S'Zc'
p1796
sS'DX-C8000'
p1797
S'Zd'
p1798
sS'GX-EF92'
p1799
S'Za'
p1800
sS'HTC-D626d'
p1801
S'Nc'
p1802
sS'GX-EF98'
p1803
S'Za'
p1804
sS'KS-918C'
p1805
S'Za'
p1806
sS'CW-SC66'
p1807
S'Wa'
p1808
sS'SCH-W559'
p1809
S'Dd'
p1810
sS'SCH-M589'
p1811
S'Zc'
p1812
sS'SCH-i579'
p1813
S'Dc'
p1814
sS'LG-C280'
p1815
S'Zc'
p1816
sS'QY-S10'
p1817
S'Za'
p1818
sS'YL-S60'
p1819
S'Lb'
p1820
sS'PXX-K210v'
p1821
S'Za'
p1822
sS'HC-E3'
p1823
S'Zb'
p1824
sS'HYF-HYF6300'
p1825
S'Za'
p1826
sS'BW-BenWee L5'
p1827
S'Zb'
p1828
sS'XMP-2014218'
p1829
S'Ed'
p1830
sS'OKW-C350'
p1831
S'Zb'
p1832
sS'YCT-C7100S'
p1833
S'Za'
p1834
sS'CHL-N500'
p1835
S'Ua'
p1836
sS'CHL-E 3880'
p1837
S'Uc'
p1838
sS'HW-HUAWEI VNS AL00'
p1839
S'Ac'
p1840
sS'KON-E529'
p1841
S'Za'
p1842
sS'KON-E528'
p1843
S'Za'
p1844
sS'LNV-Lenovo A805e'
p1845
S'Jc'
p1846
sS'ZH-C310'
p1847
S'Za'
p1848
sS'VIV-vivo X6SPlus'
p1849
S'Qd'
p1850
sS'SCH-i889'
p1851
S'De'
p1852
sS'LNV-Lenovo A780e'
p1853
S'Jb'
p1854
sS'ZTE-G882'
p1855
S'Id'
p1856
sS'SXD-A2310'
p1857
S'Za'
p1858
sS'WW-WayTone V100'
p1859
S'Zc'
p1860
sS'JP-CV320'
p1861
S'Za'
p1862
sS'HC-D500'
p1863
S'Zb'
p1864
sS'DT-S500C'
p1865
S'Zd'
p1866
sS'XD-US969'
p1867
S'Zb'
p1868
sS'BD-Bird C328'
p1869
S'Za'
p1870
sS'HS-E930'
p1871
S'Ta'
p1872
sS'HW-KNT AL10'
p1873
S'Ad'
p1874
sS'HTC-M8d'
p1875
S'Ne'
p1876
sS'YL-Coolpad 5316'
p1877
S'Lb'
p1878
sS'YL-Coolpad 5315'
p1879
S'Lb'
p1880
sS'YL-Coolpad 5310'
p1881
S'La'
p1882
sS'YL-Coolpad 5311'
p1883
S'Lb'
p1884
sS'SCH-I879E'
p1885
S'Dc'
p1886
sS'YFZ-EPHONE A10S'
p1887
S'Za'
p1888
sS'GX-CF81'
p1889
S'Zc'
p1890
sS'KXD-C202'
p1891
S'Za'
p1892
sS'HS-C210'
p1893
S'Ta'
p1894
sS'HS-CG2803'
p1895
S'Zc'
p1896
sS'HL-S600'
p1897
S'Zc'
p1898
sS'HS-C189'
p1899
S'Ta'
p1900
sS'TLT-LT S600D'
p1901
S'Za'
p1902
sS'LNV-Lenovo A370e'
p1903
S'Ja'
p1904
sS'HW-C2809'
p1905
S'Aa'
p1906
sS'ZTE-F285'
p1907
S'Ia'
p1908
sS'ZTE-F280'
p1909
S'Ia'
p1910
sS'MOTOR-W355'
p1911
S'Va'
p1912
sS'HW-C2801'
p1913
S'Aa'
p1914
sS'HW-C2800'
p1915
S'Aa'
p1916
sS'YCT-TV32'
p1917
S'Za'
p1918
sS'YCT-TV33'
p1919
S'Za'
p1920
sS'HW-C2807'
p1921
S'Aa'
p1922
sS'ACM-A6Plus'
p1923
S'Cf'
p1924
sS'FDT-FT C616'
p1925
S'Za'
p1926
sS'KR-CONOR EG189'
p1927
S'Zc'
p1928
sS'ZY-FLY N8'
p1929
S'Zb'
p1930
sS'TLT-LT S600+'
p1931
S'Za'
p1932
sS'ZY-FLY N6'
p1933
S'Za'
p1934
sS'ZY-FLY N7'
p1935
S'Zb'
p1936
sS'ZTE-C V8'
p1937
S'Ic'
p1938
sS'LG-KX166'
p1939
S'Zc'
p1940
sS'ZTE-N960'
p1941
S'Ib'
p1942
sS'TCL-P307L'
p1943
S'Sa'
p1944
sS'XD-U689'
p1945
S'Zb'
p1946
sS'EAS-EG1000C'
p1947
S'Zc'
p1948
sS'MZ-M571C'
p1949
S'Fb'
p1950
sS'PXX-W520CN'
p1951
S'Za'
p1952
sS'CFZ-OKAY i307'
p1953
S'Zb'
p1954
sS'HW-HUAWEI C8850'
p1955
S'Ab'
p1956
sS'BD-Bird EG600'
p1957
S'Zc'
p1958
sS'HTY-DE8101'
p1959
S'Zb'
p1960
sS'KS-618C'
p1961
S'Zb'
p1962
sS'TY-B2030'
p1963
S'Za'
p1964
sS'NOK-1706'
p1965
S'Zc'
p1966
sS'HS-D867'
p1967
S'Td'
p1968
sS'TMT-T smart D09S'
p1969
S'Zc'
p1970
sS'JSR-innos D9C'
p1971
S'Zb'
p1972
sS'MOT-XT785'
p1973
S'Zc'
p1974
sS'GXT-E550'
p1975
S'Zb'
p1976
sS'MOT-XT788'
p1977
S'Vc'
p1978
sS'MYJ-MY A8'
p1979
S'Za'
p1980
sS'YL-Coolpad A8 931N'
p1981
S'Ld'
p1982
sS'NOK-X3 01'
p1983
S'Zc'
p1984
sS'SCH-I869'
p1985
S'Dc'
p1986
sS'TCL-J736L'
p1987
S'Sb'
p1988
sS'LNV-Lenovo A355e'
p1989
S'Ja'
p1990
sS'BK-Coobe i599'
p1991
S'Za'
p1992
sS'TY-K Touch E80'
p1993
S'Zb'
p1994
sS'OKW-A320'
p1995
S'Za'
p1996
sS'TY-K Touch E88'
p1997
S'Zb'
p1998
sS'HW-HUAWEI C199s'
p1999
S'Ac'
p2000
sS'SCH-I719'
p2001
S'Zc'
p2002
sS'BD-Bird E891'
p2003
S'Zb'
p2004
sS'Nokia-6088'
p2005
S'Zb'
p2006
sS'HW-PLE 703L'
p2007
S'Ac'
p2008
sS'STW-TW90'
p2009
S'Za'
p2010
sS'TW-TONEWIN S8210'
p2011
S'Zb'
p2012
sS'BLW-VC566'
p2013
S'Za'
p2014
sS'MOT-XT928'
p2015
S'Ve'
p2016
sS'DC-DCT 528'
p2017
S'Za'
p2018
sS'SH-Saihon I98+'
p2019
S'Za'
p2020
sS'TY-K Touch E67'
p2021
S'Za'
p2022
sS'PSX-ZY058'
p2023
S'Za'
p2024
sS'HTW-C86'
p2025
S'Zb'
p2026
sS'WB-V HOPE E600'
p2027
S'Za'
p2028
sS'YL-Coolpad 9930'
p2029
S'Ld'
p2030
sS'GIO-GiONEE GN5001S'
p2031
S'Rc'
p2032
sS'YCT-CT S200'
p2033
S'Za'
p2034
sS'BLW-VE262'
p2035
S'Za'
p2036
sS'SHT-HTT H558B'
p2037
S'Za'
p2038
sS'XD-U1203'
p2039
S'Zb'
p2040
sS'SCH-P709'
p2041
S'Dd'
p2042
sS'ZTE-M901C'
p2043
S'Id'
p2044
sS'DPD-T5399'
p2045
S'Ze'
p2046
sS'TLT-LT S100'
p2047
S'Zb'
p2048
sS'SCH-S239'
p2049
S'Db'
p2050
sS'HC-EG E600'
p2051
S'Zc'
p2052
sS'HW-Che1 CL10'
p2053
S'Ac'
p2054
sS'YL-Coolpad Y803 9'
p2055
S'Lc'
p2056
sS'BK-Coobe A530'
p2057
S'Za'
p2058
sS'BLF-lephone 1600'
p2059
S'Za'
p2060
sS'BLW-VL69'
p2061
S'Zc'
p2062
sS'TLT-LT S910D'
p2063
S'Zc'
p2064
sS'YCT-TE610'
p2065
S'Za'
p2066
sS'GH-ChanghongC800'
p2067
S'Zb'
p2068
sS'SCH-SM J3109'
p2069
S'Db'
p2070
sS'OB-OPPO R8205'
p2071
S'Pd'
p2072
sS'YCT-TC112'
p2073
S'Za'
p2074
sS'GH-ChanghongC808'
p2075
S'Zc'
p2076
sS'YCT-TC116'
p2077
S'Za'
p2078
sS'HW-HUAWEI TIT AL00'
p2079
S'Ac'
p2080
sS'NWS-NIVS E3'
p2081
S'Za'
p2082
sS'HSC-ASUS X003'
p2083
S'Zc'
p2084
sS'TY-K Touch E800'
p2085
S'Zc'
p2086
sS'HS-Hisense F20T'
p2087
S'Tb'
p2088
sS'TY-K Touch E806'
p2089
S'Zb'
p2090
sS'YKT-U97'
p2091
S'Zd'
p2092
sS'YLT-UNC E71'
p2093
S'Za'
p2094
sS'YKT-U91'
p2095
S'Zc'
p2096
sS'DT-DATANG S55'
p2097
S'Zc'
p2098
sS'YL-Coolpad Y1'
p2099
S'Lb'
p2100
sS'HS-H800T'
p2101
S'Td'
p2102
sS'HW-C2201'
p2103
S'Aa'
p2104
sS'UT-T80'
p2105
S'Zc'
p2106
sS'BL-100B'
p2107
S'Zb'
p2108
sS'SCH-SM A9100'
p2109
S'De'
p2110
sS'HL-LV999'
p2111
S'Za'
p2112
sS'SCH-F669'
p2113
S'Dc'
p2114
sS'DS-DONXON E289'
p2115
S'Za'
p2116
sS'YFZ-EPHONE E638'
p2117
S'Za'
p2118
sS'HS-F58'
p2119
S'Tb'
p2120
sS'SCH-SM A5100'
p2121
S'Dd'
p2122
sS'BLF-lephone 1800'
p2123
S'Za'
p2124
sS'OKW-OKWAP i710'
p2125
S'Za'
p2126
sS'JB-ES10'
p2127
S'Zb'
p2128
sS'CW-V99'
p2129
S'Wb'
p2130
sS'SHP-SH330T'
p2131
S'Zb'
p2132
sS'XY-Q983'
p2133
S'Ze'
p2134
sS'TLT-LT S980D'
p2135
S'Zb'
p2136
sS'JB-JC100'
p2137
S'Za'
p2138
sS'YL-Coolpad 5109S'
p2139
S'La'
p2140
sS'ZTE-C N700'
p2141
S'Ia'
p2142
sS'HW-C7189'
p2143
S'Ab'
p2144
sS'VIV-vivo Y51A'
p2145
S'Qc'
p2146
sS'SH-Saihon K3+'
p2147
S'Za'
p2148
sS'KON-168'
p2149
S'Zb'
p2150
sS'GX-EF80'
p2151
S'Za'
p2152
sS'VIV-vivo Y928'
p2153
S'Qc'
p2154
sS'CHL-E3200L'
p2155
S'Ua'
p2156
sS'OKW-OKWAP C680'
p2157
S'Zb'
p2158
sS'YL-Coolpad D5800'
p2159
S'Lb'
p2160
sS'GX-EF88'
p2161
S'Zb'
p2162
sS'LNV-Lenovo A860e'
p2163
S'Jc'
p2164
sS'YL-2838'
p2165
S'Zc'
p2166
sS'XYD-Quiswise Q908'
p2167
S'Ze'
p2168
sS'RY-RY510'
p2169
S'Zb'
p2170
sS'SCH-i569'
p2171
S'Db'
p2172
sS'LG-KW730'
p2173
S'Xc'
p2174
sS'GXQ-E998'
p2175
S'Zc'
p2176
sS'HTC-D816d'
p2177
S'Nc'
p2178
sS'YL-S100'
p2179
S'Lb'
p2180
sS'ZTE-C500'
p2181
S'Ib'
p2182
sS'ML-X6'
p2183
S'Za'
p2184
sS'BLF-lephone 2600'
p2185
S'Zb'
p2186
sS'CW-SE18'
p2187
S'Wa'
p2188
sS'SNM-LT25c'
p2189
S'Od'
p2190
sS'BW-BenWee V9'
p2191
S'Zc'
p2192
sS'ZTE-J G680'
p2193
S'Id'
p2194
sS'HS-D95'
p2195
S'Td'
p2196
sS'BW-BenWee V5'
p2197
S'Zb'
p2198
sS'BW-BenWee V6'
p2199
S'Zb'
p2200
sS'DT-DATANG T98S'
p2201
S'Zf'
p2202
sS'HS-D90'
p2203
S'Tc'
p2204
sS'HS-D92'
p2205
S'Tc'
p2206
sS'GX-KINGSUN K6 PLUS'
p2207
S'Zd'
p2208
sS'NOK-6316s'
p2209
S'Zc'
p2210
sS'SCH-SM G3139D'
p2211
S'Da'
p2212
sS'SCH-i899'
p2213
S'De'
p2214
sS'SCH-W899'
p2215
S'De'
p2216
sS'TCL-P306C'
p2217
S'Sa'
p2218
sS'ZH-C75'
p2219
S'Zb'
p2220
sS'ZH-C76'
p2221
S'Za'
p2222
sS'ZTE-J G660'
p2223
S'Ib'
p2224
sS'HYX-HY C6'
p2225
S'Za'
p2226
sS'MZ-M570C'
p2227
S'Fd'
p2228
sS'MOTOR-W210'
p2229
S'Va'
p2230
sS'ZTE-G717C'
p2231
S'Ic'
p2232
sS'MOTOR-V3c'
p2233
S'Vc'
p2234
sS'ACM-A5'
p2235
S'Ce'
p2236
sS'HS-E305'
p2237
S'Ta'
p2238
sS'CHL-E1000'
p2239
S'Ua'
p2240
sS'HS-E300'
p2241
S'Ta'
p2242
sS'BLW-VD570'
p2243
S'Zb'
p2244
sS'BLW-NO 1'
p2245
S'Za'
p2246
sS'NYG-E6880'
p2247
S'Za'
p2248
sS'MOT-XT1570'
p2249
S'Ve'
p2250
sS'HW-C5900'
p2251
S'Ab'
p2252
sS'ZC-ZC200'
p2253
S'Zb'
p2254
sS'HW-C2900'
p2255
S'Aa'
p2256
sS'HW-C2901'
p2257
S'Aa'
p2258
sS'HW-C2905'
p2259
S'Aa'
p2260
sS'HW-C2906'
p2261
S'Aa'
p2262
sS'HW-C2907'
p2263
S'Aa'
p2264
sS'YL-Coolpad 5360'
p2265
S'Lb'
p2266
sS'YL-Coolpad 5367'
p2267
S'La'
p2268
sS'YL-Coolpad 5263CS'
p2269
S'La'
p2270
sS'GX-CF600'
p2271
S'Za'
p2272
sS'CHL-BD001'
p2273
S'Ue'
p2274
sS'CHD-ChanghongA200'
p2275
S'Zd'
p2276
sS'GX-EF92A'
p2277
S'Za'
p2278
sS'CHL-N660'
p2279
S'Ub'
p2280
sS'DES-E999'
p2281
S'Zd'
p2282
sS'HS-C198'
p2283
S'Ta'
p2284
sS'HS-C199'
p2285
S'Ta'
p2286
sS'YHY-V901'
p2287
S'Ze'
p2288
sS'SNX-E81c'
p2289
S'Zb'
p2290
sS'HS-C190'
p2291
S'Ta'
p2292
sS'DX-C209'
p2293
S'Za'
p2294
sS'GX-KINGSUN F3C'
p2295
S'Za'
p2296
sS'HW-HUAWEI G6 C00'
p2297
S'Ac'
p2298
sS'FCJ-EV701'
p2299
S'Zb'
p2300
sS'JM-NAIDE XG308'
p2301
S'Zb'
p2302
sS'DS-DONXON E3'
p2303
S'Za'
p2304
sS'TLT-LT830'
p2305
S'Za'
p2306
sS'SCH-I679'
p2307
S'Da'
p2308
sS'CHL-S3000'
p2309
S'Ua'
p2310
sS'HW-CHM CL00'
p2311
S'Ab'
p2312
sS'HC-HE N7E'
p2313
S'Zc'
p2314
sS'HW-HUAWEI C8500SR'
p2315
S'Ab'
p2316
sS'ZTE-N919'
p2317
S'Ib'
p2318
sS'LNV-Lenovo A360e'
p2319
S'Ja'
p2320
sS'HW-HUAWEI TAG AL00'
p2321
S'Ac'
p2322
sS'GH-ChanghongC100'
p2323
S'Zb'
p2324
sS'YHY-ViewSonic A8+'
p2325
S'Ze'
p2326
sS'NOK-2608'
p2327
S'Zb'
p2328
sS'GIO-GiONEE M3S'
p2329
S'Rc'
p2330
sS'HX-HE F20'
p2331
S'Za'
p2332
sS'SM-Kingpad N600'
p2333
S'Za'
p2334
sS'SQG-Z1221'
p2335
S'Zd'
p2336
sS'BRS-BROR C16'
p2337
S'Za'
p2338
sS'VIV-vivo X5Max V'
p2339
S'Qd'
p2340
sS'DT-C100'
p2341
S'Za'
p2342
sS'HS-Hisense E20T'
p2343
S'Tc'
p2344
sS'SCH-I879'
p2345
S'Dc'
p2346
sS'TLT-LT908'
p2347
S'Za'
p2348
sS'SQC-D5177CT'
p2349
S'Za'
p2350
sS'JSR-innos i6C'
p2351
S'Zb'
p2352
sS'SHT-H516'
p2353
S'Za'
p2354
sS'HS-EG939'
p2355
S'Tb'
p2356
sS'QJ-V60'
p2357
S'Zc'
p2358
sS'SHT-H518'
p2359
S'Za'
p2360
sS'ZTE-C R519C'
p2361
S'Ia'
p2362
sS'MOT-XT553'
p2363
S'Vc'
p2364
sS'HTC-619d'
p2365
S'Nc'
p2366
sS'YL-Coolpad 5109'
p2367
S'La'
p2368
sS'YL-Coolpad 5108'
p2369
S'La'
p2370
sS'GIO-R206'
p2371
S'Zc'
p2372
sS'BW-BenWee 336'
p2373
S'Za'
p2374
sS'SW-Q4350'
p2375
S'Zc'
p2376
sS'TLT-LT S800'
p2377
S'Za'
p2378
sS'ZTE-Q802D'
p2379
S'Ic'
p2380
sS'ZTE-Q802C'
p2381
S'Ib'
p2382
sS'TCL-I650C'
p2383
S'Sb'
p2384
sS'KDE-MC003A'
p2385
S'Gc'
p2386
sS'ML-TY708'
p2387
S'Za'
p2388
sS'GX-CF588'
p2389
S'Za'
p2390
sS'NOKIA-2505'
p2391
S'Zb'
p2392
sS'HW-HUAWEI Y318'
p2393
S'Ad'
p2394
sS'ZTE-C S210'
p2395
S'Ia'
p2396
sS'XBD-symbit A99'
p2397
S'Zc'
p2398
sS'PXX-i800v'
p2399
S'Zb'
p2400
sS'HW-ATH AL00'
p2401
S'Ac'
p2402
sS'GXQ-EG968'
p2403
S'Zc'
p2404
sS'OW-AW E668'
p2405
S'Za'
p2406
sS'YHY-ViewSonic A7'
p2407
S'Ze'
p2408
sS'YHY-ViewSonic A6'
p2409
S'Ze'
p2410
sS'ZTE-C880'
p2411
S'Ic'
p2412
sS'QS-Q2000'
p2413
S'Zc'
p2414
sS'TCL-D515'
p2415
S'Sb'
p2416
sS'LG-KX500'
p2417
S'Xc'
p2418
sS'UT-CD220'
p2419
S'Zc'
p2420
sS'YHY-ViewSonic A8'
p2421
S'Ze'
p2422
sS'HW-VIE AL10'
p2423
S'Ae'
p2424
sS'SJX-510C'
p2425
S'Za'
p2426
sS'KM-Kumai 590S'
p2427
S'Za'
p2428
sS'ZTE-N5S'
p2429
S'Ic'
p2430
sS'HW-HUAWEI D2 2010'
p2431
S'Ae'
p2432
sS'LNV-Lenovo P518e'
p2433
S'Jb'
p2434
sS'LNV-Lenovo A765e'
p2435
S'Jb'
p2436
sS'HW-Che1 CL20'
p2437
S'Ac'
p2438
sS'SSD-Y1'
p2439
S'Za'
p2440
sS'XYT-D656'
p2441
S'Zc'
p2442
sS'SCH-F589'
p2443
S'Dc'
p2444
sS'TCL-M2L'
p2445
S'Sc'
p2446
sS'KB-C3198'
p2447
S'Zb'
p2448
sS'QRD-8625DSDS'
p2449
S'Zc'
p2450
sS'GX-CF100'
p2451
S'Za'
p2452
sS'ZY-FLY Q1'
p2453
S'Za'
p2454
sS'CHL-E3200'
p2455
S'Ua'
p2456
sS'HC-C300'
p2457
S'Za'
p2458
sS'BLW-VIN9'
p2459
S'Zc'
p2460
sS'JPZ-Sun A919'
p2461
S'Zc'
p2462
sS'DC-DCT E366'
p2463
S'Zb'
p2464
sS'HS-Hisense I639T'
p2465
S'Tc'
p2466
sS'GIO-GN777E'
p2467
S'Rb'
p2468
sS'KS-858'
p2469
S'Za'
p2470
sS'HX-S200'
p2471
S'Za'
p2472
sS'DS-E389'
p2473
S'Zd'
p2474
sS'FDT-C002'
p2475
S'Za'
p2476
sS'SCH-F299'
p2477
S'Db'
p2478
sS'TY-K Touch E306'
p2479
S'Za'
p2480
sS'YFZ-E36'
p2481
S'Za'
p2482
sS'DB-D1688'
p2483
S'Zc'
p2484
sS'YL-Coolpad S180+'
p2485
S'La'
p2486
sS'HW-HUAWEI MT2 C00'
p2487
S'Ad'
p2488
sS'ZTE-C260'
p2489
S'Ia'
p2490
sS'NJX-EXUN I9109'
p2491
S'Za'
p2492
sS'OKW-OKWAP i760'
p2493
S'Zb'
p2494
sS'ZTE-H520'
p2495
S'Ia'
p2496
sS'YL-Coolpad E270'
p2497
S'La'
p2498
sS'SCH-S399'
p2499
S'Da'
p2500
sS'ZTE-CS190'
p2501
S'Ia'
p2502
sS'BLW-VE509'
p2503
S'Zb'
p2504
sS'TMT-T smart G19'
p2505
S'Zb'
p2506
sS'LNV-Lenovo A305e'
p2507
S'Ja'
p2508
sS'SCH-SM G3819D'
p2509
S'Dc'
p2510
sS'SCH-F619'
p2511
S'Db'
p2512
sS'OKW-C680'
p2513
S'Zb'
p2514
sS'OKW-OKWAP i720'
p2515
S'Zb'
p2516
sS'TY-F132'
p2517
S'Za'
p2518
sS'TY-F130'
p2519
S'Za'
p2520
sS'CO-E89'
p2521
S'Ze'
p2522
sS'LG-KV920'
p2523
S'Xb'
p2524
sS'YCT-CT V2'
p2525
S'Za'
p2526
sS'HW-HUAWEI C8825D'
p2527
S'Ab'
p2528
sS'ZBH-BIHEE S3'
p2529
S'Za'
p2530
sS'DC-DCT T265'
p2531
S'Za'
p2532
sS'CHL-S600'
p2533
S'Ub'
p2534
sS'HC-HE E710'
p2535
S'Za'
p2536
sS'WB-V HOPE E928'
p2537
S'Zc'
p2538
sS'YFZ-EPHONE E52'
p2539
S'Zb'
p2540
sS'SCH-W2013'
p2541
S'Df'
p2542
sS'HW-C5110'
p2543
S'Ab'
p2544
sS'XMP-2014821'
p2545
S'Eb'
p2546
sS'YCT-CT02'
p2547
S'Za'
p2548
sS'GXQ-ES608'
p2549
S'Zb'
p2550
sS'ACM-A6'
p2551
S'Ce'
p2552
sS'MZ-M57AC'
p2553
S'Fc'
p2554
sS'HC-Haier I501 FL'
p2555
S'Zb'
p2556
sS'XD-U6'
p2557
S'Zb'
p2558
sS'SCH-i559'
p2559
S'Dc'
p2560
sS'GIO-GiONEE C102'
p2561
S'Ra'
p2562
sS'HTC-A620d'
p2563
S'Nc'
p2564
sS'YFZ-EPHONE E20CA'
p2565
S'Za'
p2566
sS'SHP-SH320T'
p2567
S'Zc'
p2568
sS'GIO-GiONEE W909'
p2569
S'Re'
p2570
sS'GIO-GiONEE C700'
p2571
S'Rb'
p2572
sS'XD-U2'
p2573
S'Zb'
p2574
sS'YL-Coolpad E506'
p2575
S'Lb'
p2576
sS'ZTE-E X70'
p2577
S'Ie'
p2578
sS'YL-2938'
p2579
S'Ld'
p2580
sS'LG-D859'
p2581
S'Xe'
p2582
sS'KS-KS969CE'
p2583
S'Za'
p2584
sS'ZC-ZC300'
p2585
S'Zb'
p2586
sS'TLT-LT S939D'
p2587
S'Zc'
p2588
sS'LNV-Lenovo PB1 750N'
p2589
S'Jc'
p2590
sS'BJS-conquest S8'
p2591
S'Ze'
p2592
sS'DT-C1800'
p2593
S'Zb'
p2594
sS'BW-BenWee V8'
p2595
S'Zb'
p2596
sS'LG-KX186'
p2597
S'Xa'
p2598
sS'OB-OPPO R7sm'
p2599
S'Pd'
p2600
sS'BRS-BROR F1'
p2601
S'Zb'
p2602
sS'TCL-P516L'
p2603
S'Sb'
p2604
sS'YJ-CXT 01'
p2605
S'Zb'
p2606
sS'MOTOR-W200'
p2607
S'Va'
p2608
sS'BLW-VD369'
p2609
S'Za'
p2610
sS'HS-Hisense C20'
p2611
S'Tc'
p2612
sS'ZTE-C S290'
p2613
S'Ia'
p2614
sS'GX-EF930'
p2615
S'Zb'
p2616
sS'SYY-Ue668'
p2617
S'Za'
p2618
sS'BLW-VD568'
p2619
S'Za'
p2620
sS'HS-E310'
p2621
S'Ta'
p2622
sS'QY-YUWIN C100'
p2623
S'Za'
p2624
sS'OB-OPPO A33m'
p2625
S'Pc'
p2626
sS'HC-C550'
p2627
S'Za'
p2628
sS'HC-C2060'
p2629
S'Za'
p2630
sS'HS-Hisense E625T'
p2631
S'Tb'
p2632
sS'NJX-EXUN D99'
p2633
S'Zb'
p2634
sS'MOTOR- U6c'
p2635
S'Vb'
p2636
sS'YL-Coolpad 9120'
p2637
S'Lc'
p2638
sS'HS-E912'
p2639
S'Ta'
p2640
sS'HS-E913'
p2641
S'Ta'
p2642
sS'HS-E910'
p2643
S'Tb'
p2644
sS'MOT-XT301'
p2645
S'Vb'
p2646
sS'HS-E917'
p2647
S'Ta'
p2648
sS'TCL-C995'
p2649
S'Sb'
p2650
sS'TCL-C990'
p2651
S'Sb'
p2652
sS'SED-S508EG'
p2653
S'Zd'
p2654
sS'OB-OPPO R9 Plustm A'
p2655
S'Pd'
p2656
sS'DJ-20160102'
p2657
S'Zb'
p2658
sS'HW-PLK CL00'
p2659
S'Ad'
p2660
sS'ZTE-C880S'
p2661
S'Ib'
p2662
sS'SQG-Z2121'
p2663
S'Zd'
p2664
sS'GX-EF56'
p2665
S'Zb'
p2666
sS'GX-EF55'
p2667
S'Za'
p2668
sS'DT-DATANG T26E'
p2669
S'Zd'
p2670
sS'CW-Skyworth CG08'
p2671
S'Wb'
p2672
sS'HW-C7260'
p2673
S'Ab'
p2674
sS'BK-Coobe A100'
p2675
S'Za'
p2676
sS'SM-Kingpad R518'
p2677
S'Za'
p2678
sS'OB-OPPO R7005'
p2679
S'Pd'
p2680
sS'ZTE-Q801L'
p2681
S'Ib'
p2682
sS'ZXY-ZTE N8010'
p2683
S'Ib'
p2684
sS'TF-HWCD888 6 CDMA'
p2685
S'Za'
p2686
sS'DS-D1'
p2687
S'Za'
p2688
sS'TW-TONEWIN UC520+'
p2689
S'Za'
p2690
sS'DOPOD-E806'
p2691
S'Ze'
p2692
sS'CHD-ChanghongGA888C'
p2693
S'Za'
p2694
sS'HW-C2605'
p2695
S'Aa'
p2696
sS'JST-J218'
p2697
S'Za'
p2698
sS'TCL-P301C'
p2699
S'Sa'
p2700
sS'ZTE-N900'
p2701
S'Ib'
p2702
sS'TY-D780C'
p2703
S'Zb'
p2704
sS'OB-OPPO 3005'
p2705
S'Pc'
p2706
sS'LNV-Lenovo A395e'
p2707
S'Ja'
p2708
sS'ZTE-N909'
p2709
S'Ib'
p2710
sS'ZTE-C310+'
p2711
S'Ia'
p2712
sS'Nokia-2865'
p2713
S'Za'
p2714
sS'GX-EF726'
p2715
S'Zb'
p2716
sS'LT-T812'
p2717
S'Zc'
p2718
sS'BD-Bird E329'
p2719
S'Za'
p2720
sS'ZXY-ZTE N8300'
p2721
S'Zc'
p2722
sS'MOT-ME811'
p2723
S'Vd'
p2724
sS'HCG-H858'
p2725
S'Za'
p2726
sS'HS-E860'
p2727
S'Ta'
p2728
sS'Nokia-6066'
p2729
S'Zb'
p2730
sS'HW-HUAWEI C8813Q'
p2731
S'Ab'
p2732
sS'HXS-HX D618'
p2733
S'Za'
p2734
sS'HW-HUAWEI C8813D'
p2735
S'Ab'
p2736
sS'SYS-UU200'
p2737
S'Za'
p2738
sS'ZTE-G720C'
p2739
S'Id'
p2740
sS'HS-E79'
p2741
S'Td'
p2742
sS'LNV-Lenovo S90 e'
p2743
S'Jc'
p2744
sS'HS-EG929'
p2745
S'Ta'
p2746
sS'SH-Saihon D80'
p2747
S'Zb'
p2748
sS'YL-E600'
p2749
S'Ld'
p2750
sS'SEL-B189'
p2751
S'Zb'
p2752
sS'YL-Coolpad 5110'
p2753
S'La'
p2754
sS'DPD-S500'
p2755
S'Ze'
p2756
sS'HW-C2281'
p2757
S'Aa'
p2758
sS'DPD-S505'
p2759
S'Zd'
p2760
sS'YL-Coolpad 1601'
p2761
S'La'
p2762
sS'TCL-C990+'
p2763
S'Sb'
p2764
sS'YL-Coolpad 1606'
p2765
S'La'
p2766
sS'TLT-LT821'
p2767
S'Za'
p2768
sS'TLT-LT822'
p2769
S'Za'
p2770
sS'TY-K Touch E359'
p2771
S'Zc'
p2772
sS'NYG-S7880'
p2773
S'Zb'
p2774
sS'HW-HUAWEI C8813DQ'
p2775
S'Ab'
p2776
sS'HW-HUAWEI C8650+'
p2777
S'Ab'
p2778
sS'CHL-E5700L'
p2779
S'Ua'
p2780
sS'SCH-I739'
p2781
S'Db'
p2782
sS'SCH-W399'
p2783
S'Db'
p2784
sS'HSC-ASUS X550'
p2785
S'Zd'
p2786
sS'TCL-P589L'
p2787
S'Sb'
p2788
sS'BRS-BROR E506'
p2789
S'Za'
p2790
sS'HC-HE N6E'
p2791
S'Zb'
p2792
sS'Hisen-C807'
p2793
S'Td'
p2794
sS'SCH-W159'
p2795
S'Dc'
p2796
sS'HL-S189'
p2797
S'Za'
p2798
sS'TCL-J716D'
p2799
S'Sb'
p2800
sS'UT-CD218'
p2801
S'Zc'
p2802
sS'YL-Coolpad 5600'
p2803
S'Zc'
p2804
sS'SCH-SM C7000'
p2805
S'Dd'
p2806
sS'ZTE-V9e'
p2807
S'Zc'
p2808
sS'XLJ-LA X6'
p2809
S'Zc'
p2810
sS'TY-D782'
p2811
S'Zc'
p2812
sS'ZTE-C CV19'
p2813
S'Ia'
p2814
sS'SCH-P729'
p2815
S'De'
p2816
sS'TG-Leimone E33'
p2817
S'Za'
p2818
sS'NOK-1325'
p2819
S'Za'
p2820
sS'QJ-J2 S'
p2821
S'Ze'
p2822
sS'DC-DCT E601'
p2823
S'Za'
p2824
sS'SCH-S259'
p2825
S'Db'
p2826
sS'CAS-C601'
p2827
S'Zc'
p2828
sS'CHL-A5800C'
p2829
S'Ub'
p2830
sS'KON-EG535'
p2831
S'Za'
p2832
sS'MYJ-MY V18'
p2833
S'Zb'
p2834
sS'KON-EG530'
p2835
S'Za'
p2836
sS'SN-SENAP E6'
p2837
S'Za'
p2838
sS'BLW-E737'
p2839
S'Za'
p2840
sS'YL-Coolpad N950'
p2841
S'Lc'
p2842
sS'YX-LA2 E'
p2843
S'Zc'
p2844
sS'YX-LA2 F'
p2845
S'Zb'
p2846
sS'HC-C310'
p2847
S'Zb'
p2848
sS'HW-C7500'
p2849
S'Ac'
p2850
sS'XD-US18'
p2851
S'Za'
p2852
sS'HL-H6601'
p2853
S'Zc'
p2854
sS'HL-Q960'
p2855
S'Zd'
p2856
sS'HW-HUAWEI NXT AL10'
p2857
S'Ad'
p2858
sS'HX-C001'
p2859
S'Za'
p2860
sS'HP-REDPI H1'
p2861
S'Za'
p2862
sS'YL-768'
p2863
S'Le'
p2864
sS'SN-SENAP E8'
p2865
S'Zb'
p2866
sS'SCH-B309I'
p2867
S'Da'
p2868
sS'FDT-E918'
p2869
S'Za'
p2870
sS'FDT-E919'
p2871
S'Za'
p2872
sS'LNV-P580C'
p2873
S'Jb'
p2874
sS'YL-Coolpad 1606+'
p2875
S'La'
p2876
sS'YL-Coolpad 5216D'
p2877
S'La'
p2878
sS'SCH-W579'
p2879
S'De'
p2880
sS'LNV-Lenovo A1 32AJ0'
p2881
S'Zc'
p2882
sS'SCH-N719LTE'
p2883
S'De'
p2884
sS'LLB-620'
p2885
S'Za'
p2886
sS'SCH-W379'
p2887
S'Dc'
p2888
sS'ZTE-CS189'
p2889
S'Ia'
p2890
sS'ZTE-C180'
p2891
S'Ia'
p2892
sS'HW-HUAWEI C8826D'
p2893
S'Ab'
p2894
sS'XMP-2016001'
p2895
S'Ec'
p2896
sS'QK-8692 A00'
p2897
S'Hd'
p2898
sS'HC-C300C'
p2899
S'Za'
p2900
sS'SCH-F609'
p2901
S'Dc'
p2902
sS'ZSY-SY 9e'
p2903
S'Zb'
p2904
sS'BLW-VE283'
p2905
S'Za'
p2906
sS'QY-E6'
p2907
S'Za'
p2908
sS'QY-E9'
p2909
S'Za'
p2910
sS'TY-A906'
p2911
S'Zc'
p2912
sS'HT-D8630'
p2913
S'Za'
p2914
sS'TY-F126'
p2915
S'Zb'
p2916
sS'ZTE-C321'
p2917
S'Ia'
p2918
sS'MOT-A1800'
p2919
S'Vd'
p2920
sS'HS-Hisense E70 T'
p2921
S'Tc'
p2922
sS'ZHT-HT 590'
p2923
S'Za'
p2924
sS'BLW-VE600'
p2925
S'Za'
p2926
sS'DZD-EC79'
p2927
S'Za'
p2928
sS'HC-HE E700'
p2929
S'Zb'
p2930
sS'TLT-LT E6'
p2931
S'Za'
p2932
sS'YFZ-EPHONE E66'
p2933
S'Za'
p2934
sS'RY-RY208'
p2935
S'Za'
p2936
sS'HW-KIW AL10'
p2937
S'Ac'
p2938
sS'YFZ-EC11+'
p2939
S'Za'
p2940
sS'YFZ-EPHONE E6A'
p2941
S'Za'
p2942
sS'HW-HUAWEI Y210 2010'
p2943
S'Aa'
p2944
sS'HW-C5100'
p2945
S'Aa'
p2946
sS'LG-C258'
p2947
S'Zc'
p2948
sS'ZTE-C S191'
p2949
S'Ia'
p2950
sS'ZTE-C S192'
p2951
S'Ia'
p2952
sS'ZTE-C S193'
p2953
S'Ia'
p2954
sS'ZTE-N909D'
p2955
S'Ib'
p2956
sS'SCH-W709'
p2957
S'Df'
p2958
sS'TY-V970C'
p2959
S'Zb'
p2960
sS'MLS-MEELI X6L'
p2961
S'Za'
p2962
sS'DED-DESAY C68'
p2963
S'Zb'
p2964
sS'YJ-JZX S188'
p2965
S'Za'
p2966
sS'HTX-HT8008'
p2967
S'Zc'
p2968
sS'PXX-i700v'
p2969
S'Zb'
p2970
sS'TF-C800'
p2971
S'Zc'
p2972
sS'SH-Saihon E300'
p2973
S'Za'
p2974
sS'SM-Kingpad K530'
p2975
S'Za'
p2976
sS'WST-100A'
p2977
S'Zb'
p2978
sS'YPJ-epade C07'
p2979
S'Zb'
p2980
sS'JM-NAIDE XG5331'
p2981
S'Za'
p2982
sS'MOT-XT882'
p2983
S'Vc'
p2984
sS'MOT-XT883'
p2985
S'Vc'
p2986
sS'LG-KX191'
p2987
S'Xa'
p2988
sS'LG-KX190'
p2989
S'Xa'
p2990
sS'CW-PE10'
p2991
S'Wb'
p2992
sS'OUS-SINS1100'
p2993
S'Za'
p2994
sS'LG-KX195'
p2995
S'Xa'
p2996
sS'LG-KX197'
p2997
S'Xa'
p2998
sS'LG-KX196'
p2999
S'Xa'
p3000
sS'ZTE-C R750'
p3001
S'Ic'
p3002
sS'ZBH-BIHEE A6'
p3003
S'Za'
p3004
sS'ZTE-Q2S C'
p3005
S'Ic'
p3006
sS'ZTE-G719C'
p3007
S'Ic'
p3008
sS'BK-Coobe V660'
p3009
S'Za'
p3010
sS'AIG-800C'
p3011
S'Zb'
p3012
sS'VIV-vivo Y31A'
p3013
S'Qb'
p3014
sS'LNV-Lenovo A505e'
p3015
S'Jb'
p3016
sS'GIO-GiONEE C605'
p3017
S'Rb'
p3018
sS'GIO-GiONEE C600'
p3019
S'Rb'
p3020
sS'XD-US959'
p3021
S'Zb'
p3022
sS'GX-EF708'
p3023
S'Za'
p3024
sS'LG-C676'
p3025
S'Zc'
p3026
sS'GX-EF702'
p3027
S'Za'
p3028
sS'HW-HUAWEI RIO AL00'
p3029
S'Ad'
p3030
sS'GX-EF701'
p3031
S'Za'
p3032
sS'GX-EF706'
p3033
S'Za'
p3034
sS'GX-EF707'
p3035
S'Za'
p3036
sS'GX-EF705'
p3037
S'Za'
p3038
sS'SX-Capitel C798'
p3039
S'Za'
p3040
sS'LNV-Lenovo S850e'
p3041
S'Jb'
p3042
sS'SCH-M609'
p3043
S'Dd'
p3044
sS'QX-HR8188TC'
p3045
S'Za'
p3046
sS'NT-NT83E'
p3047
S'Zb'
p3048
sS'ZTE-C3621'
p3049
S'Ia'
p3050
sS'SH-Saihon K3'
p3051
S'Za'
p3052
sS'TG-L2680'
p3053
S'Za'
p3054
sS'PXX-C530Lv'
p3055
S'Za'
p3056
sS'HX-Q5'
p3057
S'Za'
p3058
sS'HS-Hisense M30'
p3059
S'Ta'
p3060
sS'HX-Q3'
p3061
S'Za'
p3062
sS'TY-D179'
p3063
S'Zb'
p3064
sS'MOT-A3300c'
p3065
S'Ve'
p3066
sS'XD-U99'
p3067
S'Za'
p3068
sS'XD-U558'
p3069
S'Za'
p3070
sS'HW-HUAWEI A199'
p3071
S'Ac'
p3072
sS'XY-Q683'
p3073
S'Zc'
p3074
sS'TCL-P588L'
p3075
S'Sb'
p3076
sS'KR-CONOR E188'
p3077
S'Zb'
p3078
sS'HC-HE N710E'
p3079
S'Zb'
p3080
sS'HW-HUAWEI C8800'
p3081
S'Ab'
p3082
sS'TCL-D668'
p3083
S'Sb'
p3084
sS'GIO-GiONEE GN8001'
p3085
S'Rd'
p3086
sS'YL-SK1 02'
p3087
S'Lc'
p3088
sS'SCH-E329i'
p3089
S'Da'
p3090
sS'NYD-HT120'
p3091
S'Za'
p3092
sS'HC-HE E80'
p3093
S'Zc'
p3094
sS'ZTE-N9510C'
p3095
S'Id'
p3096
sS'JPL-C398'
p3097
S'Za'
p3098
sS'JP-CV737'
p3099
S'Zc'
p3100
sS'BRS-BROR C15'
p3101
S'Za'
p3102
sS'GX-EF70'
p3103
S'Za'
p3104
sS'SM-KINGPAD EG809'
p3105
S'Zb'
p3106
sS'HS-EG916'
p3107
S'Ta'
p3108
sS'GH-ChanghongC300'
p3109
S'Za'
p3110
sS'HW-KNT AL20'
p3111
S'Ae'
p3112
sS'ZTE-N807'
p3113
S'Ia'
p3114
sS'SM-KINGPAD EG800'
p3115
S'Zb'
p3116
sS'SM-KINGPAD EG807'
p3117
S'Za'
p3118
sS'ZTE-C GA200'
p3119
S'Ib'
p3120
sS'HS-C558'
p3121
S'Tb'
p3122
sS'JCT-JC A109'
p3123
S'Zb'
p3124
sS'ZHT-HT 530'
p3125
S'Za'
p3126
sS'QRD-QRD8625 DSDA'
p3127
S'Zc'
p3128
sS'EAS-GV2000'
p3129
S'Zc'
p3130
sS'ZTE-EN72'
p3131
S'Ie'
p3132
sS'JCT-JC A107'
p3133
S'Za'
p3134
sS'SCH-I659'
p3135
S'Dc'
p3136
sS'HTC-919d'
p3137
S'Ne'
p3138
sS'YL-Coolpad T2 C01'
p3139
S'Lc'
p3140
sS'TY-K Touch E366'
p3141
S'Zc'
p3142
sS'CHL-E3680'
p3143
S'Uc'
p3144
sS'JX-JXD T8'
p3145
S'Zb'
p3146
sS'BRS-BROR S6'
p3147
S'Za'
p3148
sS'XMP-2012062'
p3149
S'Ed'
p3150
sS'HTC-802d'
p3151
S'Ne'
p3152
sS'SCH-F859'
p3153
S'De'
p3154
sS'YL-Coolpad 9960'
p3155
S'Le'
p3156
sS'BW-BenWee S106'
p3157
S'Zb'
p3158
sS'OW-AW E688'
p3159
S'Zb'
p3160
sS'HF-520'
p3161
S'Za'
p3162
sS'WST-E30'
p3163
S'Zd'
p3164
sS'SM-KINGPAD E800'
p3165
S'Za'
p3166
sS'SCH-SM G3559'
p3167
S'Da'
p3168
sS'Coolpad-539'
p3169
S'Lb'
p3170
sS'TMT-T smart D99S'
p3171
S'Zb'
p3172
sS'NOK-2228'
p3173
S'Zb'
p3174
sS'DX-C699'
p3175
S'Zc'
p3176
sS'SCH-S269'
p3177
S'Da'
p3178
sS'JB-TC105'
p3179
S'Zb'
p3180
sS'HC-C60'
p3181
S'Zc'
p3182
sS'SCH-SM N9109W'
p3183
S'Df'
p3184
sS'TW-TONEWIN S8310'
p3185
S'Zb'
p3186
sS'HW-HUAWEI C8812E'
p3187
S'Ab'
p3188
sS'YL-Coolpad 5200S'
p3189
S'La'
p3190
sS'HC-HE N620E'
p3191
S'Zb'
p3192
sS'YJ-CXT 01A'
p3193
S'Za'
p3194
sS'HX-HE N800'
p3195
S'Zb'
p3196
sS'HW-HUAWEI C8950D'
p3197
S'Ab'
p3198
sS'HS-E520'
p3199
S'Ta'
p3200
sS'FDT-E6'
p3201
S'Za'
p3202
sS'ZHT-HT 909'
p3203
S'Zb'
p3204
sS'FDT-E5'
p3205
S'Za'
p3206
sS'SCH-B299'
p3207
S'Db'
p3208
sS'HTX-HT8001'
p3209
S'Za'
p3210
sS'YCT-TC121'
p3211
S'Za'
p3212
sS'HYW-HYWY H040'
p3213
S'Za'
p3214
sS'TY-K Touch E780'
p3215
S'Zb'
p3216
sS'GXQ-C2401'
p3217
S'Zb'
p3218
sS'HTC-D516d'
p3219
S'Nc'
p3220
sS'HC-HE U56E'
p3221
S'Zb'
p3222
sS'HW-HUAWEI C8655'
p3223
S'Aa'
p3224
sS'HW-HUAWEI C8650'
p3225
S'Ab'
p3226
sS'TCL-D666'
p3227
S'Zc'
p3228
sS'TCL-D662'
p3229
S'Sb'
p3230
sS'ZTE-H500'
p3231
S'Ib'
p3232
sS'SCH-W569'
p3233
S'Dd'
p3234
sS'SHL-H800'
p3235
S'Za'
p3236
sS'TW-TONEWIN UC525'
p3237
S'Za'
p3238
sS'KON-F805'
p3239
S'Za'
p3240
sS'SCH-F639'
p3241
S'Dc'
p3242
sS'ZTE-C190'
p3243
S'Ia'
p3244
sS'YL-Coolpad 5910'
p3245
S'Lc'
p3246
sS'YX-LA3 E'
p3247
S'Zc'
p3248
sS'GIO-GIONEE GN3001'
p3249
S'Rc'
p3250
sS'GIO-GIONEE GN3002'
p3251
S'Rc'
p3252
sS'GIO-GIONEE GN3003'
p3253
S'Rb'
p3254
sS'WW-WayTone Q3S'
p3255
S'Zc'
p3256
sS'ZXY-ZTE CG990'
p3257
S'Ic'
p3258
sS'JB-ES60'
p3259
S'Zb'
p3260
sS'ZTE-Q7 C'
p3261
S'Ic'
p3262
sS'PXX-i380v'
p3263
S'Zb'
p3264
sS'CHL-S9100'
p3265
S'Ub'
p3266
sS'ZTE-C339'
p3267
S'Ia'
p3268
sS'FDT-C15'
p3269
S'Za'
p3270
sS'MOT-XT800+'
p3271
S'Vd'
p3272
sS'OT-E105C'
p3273
S'Zc'
p3274
sS'ZTE-C330'
p3275
S'Ia'
p3276
sS'ZTE-C336'
p3277
S'Ia'
p3278
sS'GX-CF308'
p3279
S'Za'
p3280
sS'GX-EF90A'
p3281
S'Za'
p3282
sS'LNV-Lenovo A690e'
p3283
S'Jb'
p3284
sS'GX-CF300'
p3285
S'Za'
p3286
sS'YFZ-EPHONE E75'
p3287
S'Zb'
p3288
sS'YL-2318'
p3289
S'Lc'
p3290
sS'MZ-M688C'
p3291
S'Fb'
p3292
sS'YFZ-EPHONE E70'
p3293
S'Zb'
p3294
sS'TCL-280C'
p3295
S'Sa'
p3296
sS'BLF-lephone 1106'
p3297
S'Za'
p3298
sS'ZTE-BA610C'
p3299
S'Ib'
p3300
sS'ZTE-C S185'
p3301
S'Zc'
p3302
sS'BLF-lephone 1109'
p3303
S'Za'
p3304
sS'ZTE-C S182'
p3305
S'Ia'
p3306
sS'FDT-C200'
p3307
S'Za'
p3308
sS'BW-BenWee 5100D'
p3309
S'Za'
p3310
sS'FDT-C18'
p3311
S'Za'
p3312
sS'STW-TW198'
p3313
S'Zb'
p3314
sS'HS-Hisense E71 T'
p3315
S'Tc'
p3316
sS'HTC-D826d'
p3317
S'Nd'
p3318
sS'LNV-ET60C'
p3319
S'Jd'
p3320
sS'SCH-SM G9200'
p3321
S'Df'
p3322
sS'KON-F15'
p3323
S'Zc'
p3324
sS'LNV-Lenovo i318e'
p3325
S'Jb'
p3326
sS'ZTE-C R580'
p3327
S'Ia'
p3328
sS'OKW-C316'
p3329
S'Zb'
p3330
sS'YXJ-C10'
p3331
S'Za'
p3332
sS'SM-Kingpad K520'
p3333
S'Zb'
p3334
sS'OKW-C310'
p3335
S'Zb'
p3336
sS'GIO-GiONEE C900'
p3337
S'Rb'
p3338
sS'LNV-Lenovo A560e'
p3339
S'Ja'
p3340
sS'BLW-VC350'
p3341
S'Za'
p3342
sS'TY-K Touch E399'
p3343
S'Zb'
p3344
sS'GIO-CG65'
p3345
S'Rb'
p3346
sS'HTC-D316d'
p3347
S'Nb'
p3348
sS'TCL-P518L'
p3349
S'Sb'
p3350
sS'JST-J699'
p3351
S'Za'
p3352
sS'FDT-C68S'
p3353
S'Za'
p3354
sS'SH-Saihon I60'
p3355
S'Za'
p3356
sS'QK-1503 A01'
p3357
S'Hc'
p3358
sS'SCH-W609'
p3359
S'Dc'
p3360
sS'TLT-LT E113'
p3361
S'Za'
p3362
sS'YCT-C8599'
p3363
S'Za'
p3364
sS'GIO-GiONEE C610'
p3365
S'Rb'
p3366
sS'ZXY-ZTE C D930'
p3367
S'Zc'
p3368
sS'XD-U75'
p3369
S'Za'
p3370
sS'XFX-SC100'
p3371
S'Za'
p3372
sS'WW-WayTone H118'
p3373
S'Zb'
p3374
sS'GIO-GiONEE W900S'
p3375
S'Re'
p3376
sS'LNV-Lenovo A2580'
p3377
S'Ja'
p3378
sS'KON-KC168'
p3379
S'Zb'
p3380
sS'NJX-EXUN E800'
p3381
S'Zb'
p3382
sS'DC-DCT C120'
p3383
S'Za'
p3384
sS'ZTE-B2015'
p3385
S'Id'
p3386
sS'YL-E28'
p3387
S'Ld'
p3388
sS'HTC-X720d'
p3389
S'Ne'
p3390
sS'GH-ChanghongC888'
p3391
S'Zc'
p3392
sS'GX-EF78'
p3393
S'Zb'
p3394
sS'WW-WayTone H200'
p3395
S'Zd'
p3396
sS'LNV-Lenovo P1c72'
p3397
S'Jd'
p3398
sS'SHL-LC106'
p3399
S'Za'
p3400
sS'ZTE-D90'
p3401
S'Ic'
p3402
sS'HW-H30 C00'
p3403
S'Ac'
p3404
sS'LNV-Lenovo A385e'
p3405
S'Ja'
p3406
sS'LG-D729'
p3407
S'Xd'
p3408
sS'SDC-H66'
p3409
S'Za'
p3410
sS'ZXY-ZTE V6700'
p3411
S'Ia'
p3412
sS'BLW-VE360'
p3413
S'Za'
p3414
sS'XMP-2014619'
p3415
S'Ed'
p3416
sS'BW-BenWee 5100'
p3417
S'Zb'
p3418
sS'DTS-DTD E800'
p3419
S'Zc'
p3420
sS'YCT-S500'
p3421
S'Za'
p3422
sS'HW-HUAWEI C8810'
p3423
S'Ab'
p3424
sS'ZTE-G718C'
p3425
S'Ic'
p3426
sS'HW-HUAWEI C8812'
p3427
S'Ab'
p3428
sS'TCL-J929L'
p3429
S'Sc'
p3430
sS'HW-HUAWEI C8815'
p3431
S'Ab'
p3432
sS'HW-HUAWEI C8816'
p3433
S'Ab'
p3434
sS'SCH-P709E'
p3435
S'Dd'
p3436
sS'HW-HUAWEI C8818'
p3437
S'Ab'
p3438
sS'SZF-Wishway V626'
p3439
S'Zb'
p3440
sS'SCH-SM G9009W'
p3441
S'De'
p3442
sS'HS-Hisense M20 T'
p3443
S'Ta'
p3444
sS'NLJ-618'
p3445
S'Za'
p3446
sS'NJX-EXUN E600'
p3447
S'Za'
p3448
sS'TCL-OTS679'
p3449
S'Sc'
p3450
sS'YL-Coolpad 9150'
p3451
S'Lc'
p3452
sS'BLW-V27'
p3453
S'Za'
p3454
sS'SCH-SM G9009D'
p3455
S'Df'
p3456
sS'HST-CD802'
p3457
S'Zb'
p3458
sS'OT-S679'
p3459
S'Sc'
p3460
sS'SN-SENAP S6'
p3461
S'Za'
p3462
sS'XFX-EV68'
p3463
S'Ze'
p3464
sS'SN-SENAP S8'
p3465
S'Za'
p3466
sS'SCH-I829'
p3467
S'Dc'
p3468
sS'YX-YUSUN E70'
p3469
S'Zb'
p3470
sS'DX-X180'
p3471
S'Ze'
p3472
sS'HW-HUAWEI P6 C00'
p3473
S'Ad'
p3474
sS'HS-EG906'
p3475
S'Tb'
p3476
sS'HS-EG901'
p3477
S'Ta'
p3478
sS'HS-EG900'
p3479
S'Tc'
p3480
sS'YLT-M812'
p3481
S'Zb'
p3482
sS'ZTE-N818'
p3483
S'Ib'
p3484
sS'GH-ChanghongC660'
p3485
S'Zb'
p3486
sS'HS-EG909'
p3487
S'Tb'
p3488
sS'HW-F202'
p3489
S'Aa'
p3490
sS'BD-Bird AE710'
p3491
S'Zb'
p3492
sS'SCH-SM G5109'
p3493
S'Dc'
p3494
sS'SCH-I629'
p3495
S'Da'
p3496
sS'MOT-WX270'
p3497
S'Va'
p3498
sS'YFZ-EPHONE E80V'
p3499
S'Zb'
p3500
sS'TY-K Touch E619+'
p3501
S'Za'
p3502
sS'QX-168'
p3503
S'Za'
p3504
sS'XMP-2012053'
p3505
S'Ec'
p3506
sS'GH-ChanghongC200'
p3507
S'Zc'
p3508
sS'SCH-I759'
p3509
S'Dc'
p3510
sS'ZTE-N855D'
p3511
S'Ib'
p3512
sS'HS-EG870'
p3513
S'Ta'
p3514
sS'YL-Coolpad 9970'
p3515
S'Le'
p3516
sS'Hisen-D858'
p3517
S'Td'
p3518
sS'XD-U768'
p3519
S'Zb'
p3520
sS'XD-U769'
p3521
S'Zb'
p3522
sS'HS-EG876'
p3523
S'Ta'
p3524
sS'SCH-N719'
p3525
S'De'
p3526
sS'ZYT-ZY 10I'
p3527
S'Zb'
p3528
sS'KM-Kumai 290S'
p3529
S'Za'
p3530
sS'TCL-S689C'
p3531
S'Sc'
p3532
sS'LNV-Lenovo A600e'
p3533
S'Jb'
p3534
sS'YL-Coolpad A520'
p3535
S'Ld'
p3536
sS'BLF-lephone 2918'
p3537
S'Za'
p3538
sS'OW-AW C300'
p3539
S'Za'
p3540
sS'SCH-W289'
p3541
S'Dc'
p3542
sS'SK-G588'
p3543
S'Zc'
p3544
sS'SJX-CIYO S11'
p3545
S'Zb'
p3546
sS'ZTE-N5'
p3547
S'Id'
p3548
sS'BRS-BROR W80'
p3549
S'Zb'
p3550
sS'WST-MASTONE T588'
p3551
S'Za'
p3552
sS'HTC-609d'
p3553
S'Nc'
p3554
sS'ZTE-N790S'
p3555
S'Ia'
p3556
sS'YL-Coolpad 5721'
p3557
S'Lb'
p3558
sS'YL-Coolpad N930'
p3559
S'Le'
p3560
sS'FDT-E837'
p3561
S'Zb'
p3562
sS'ZY-FLY V8'
p3563
S'Zc'
p3564
sS'HX-C021'
p3565
S'Zc'
p3566
sS'HX-C020'
p3567
S'Za'
p3568
sS'HX-C022'
p3569
S'Zb'
p3570
sS'UT-CD300'
p3571
S'Za'
p3572
sS'CHL-S9000S'
p3573
S'Ua'
p3574
sS'CHL-S3500'
p3575
S'Ua'
p3576
sS'SCH-B289'
p3577
S'Da'
p3578
sS'AMO-AMOI E880C'
p3579
S'Zb'
p3580
sS'HYW-HYWY H050'
p3581
S'Za'
p3582
sS'YCT-TC112+'
p3583
S'Za'
p3584
sS'BD-C528'
p3585
S'Za'
p3586
sS'YL-N900'
p3587
S'Le'
p3588
sS'YCT-C7100'
p3589
S'Za'
p3590
sS'TCL-P618L'
p3591
S'Sc'
p3592
sS'XD-U73'
p3593
S'Za'
p3594
sS'HS-X8C'
p3595
S'Tb'
p3596
sS'YL-Coolpad 5210D'
p3597
S'La'
p3598
sS'SCH-W599'
p3599
S'De'
p3600
sS'AMD-IMD A9106'
p3601
S'Zc'
p3602
sS'HW-SCL CL00'
p3603
S'Ab'
p3604
sS'YL-Coolpad 5210A'
p3605
S'La'
p3606
sS'YCT-Ctyon A9'
p3607
S'Ze'
p3608
sS'YCT-Ctyon A8'
p3609
S'Za'
p3610
sS'NUB-ZTE N939Sc'
p3611
S'Kc'
p3612
sS'YCT-C6560'
p3613
S'Za'
p3614
sS'YV-i3 01'
p3615
S'Zd'
p3616
sS'YL-N68'
p3617
S'Le'
p3618
sS'MZ-M578CA'
p3619
S'Fb'
p3620
sS'TCL-D706'
p3621
S'Sb'
p3622
sS'QJ-R9'
p3623
S'Za'
p3624
sS'DC-DCT 588'
p3625
S'Zb'
p3626
sS'ZTE-N72'
p3627
S'Ie'
p3628
sS'GXQ-C289'
p3629
S'Za'
p3630
sS'OKW-OKWAP i750'
p3631
S'Zb'
p3632
sS'HC-HE N86E'
p3633
S'Zc'
p3634
sS'JB-ES50'
p3635
S'Zb'
p3636
sS'LSY-Le X621'
p3637
S'Bc'
p3638
sS'ABL-A6L'
p3639
S'Za'
p3640
sS'DC-DCT T8'
p3641
S'Zb'
p3642
sS'ZTE-C300'
p3643
S'Ia'
p3644
sS'SCH-S299'
p3645
S'Da'
p3646
sS'YL-Coolpad 9190L'
p3647
S'Ld'
p3648
sS'GX-CF310'
p3649
S'Za'
p3650
sS'YL-Coolpad Y60 C1'
p3651
S'La'
p3652
sS'TLT-LT E718'
p3653
S'Za'
p3654
sS'STW-T105'
p3655
S'Za'
p3656
sS'HSC-ASUS X005'
p3657
S'Zc'
p3658
sS'HW-HUAWEI C5710'
p3659
S'Aa'
p3660
sS'LG-C270'
p3661
S'Zc'
p3662
sS'DXF-EV289'
p3663
S'Zc'
p3664
sS'BW-BenWee N8S'
p3665
S'Za'
p3666
sS'TF-TF1608'
p3667
S'Za'
p3668
sS'OKW-A310'
p3669
S'Zb'
p3670
sS'CHL-S9000'
p3671
S'Ua'
p3672
sS'LT-L202'
p3673
S'Za'
p3674
sS'TW-UC800'
p3675
S'Za'
p3676
sS'YL-Coolpad D550'
p3677
S'Lc'
p3678
sS'TXT-GP 50'
p3679
S'Zb'
p3680
sS'ZTE-A2015'
p3681
S'Id'
p3682
sS'TY-A969'
p3683
S'Zc'
p3684
sS'ZTE-A2017'
p3685
S'Id'
p3686
sS'HC-HE E617'
p3687
S'Zb'
p3688
sS'YFZ-E69C'
p3689
S'Za'
p3690
sS'JST-J530'
p3691
S'Za'
p3692
sS'TLT-LT 826'
p3693
S'Za'
p3694
sS'SK-X308'
p3695
S'Zc'
p3696
sS'NUB-NX529J'
p3697
S'Kc'
p3698
sS'SCH-SM G9209'
p3699
S'De'
p3700
sS'FZ-HX X3'
p3701
S'Za'
p3702
sS'HC-HV58E'
p3703
S'Zb'
p3704
sS'ZHT-Q 520'
p3705
S'Za'
p3706
sS'JM-NAIDE XG6391'
p3707
S'Zb'
p3708
sS'BK-Coobe V600'
p3709
S'Za'
p3710
sS'FDT-FT C602'
p3711
S'Za'
p3712
sS'PZ-InFocus M510t'
p3713
S'Zb'
p3714
sS'TY-E319'
p3715
S'Za'
p3716
sS'SCH-i929'
p3717
S'Dd'
p3718
sS'DX-C528'
p3719
S'Zc'
p3720
sS'SCH-W619'
p3721
S'De'
p3722
sS'SCH-SM G9300'
p3723
S'De'
p3724
sS'TCL-P302C'
p3725
S'Sa'
p3726
sS'GIO-GiONEE C620'
p3727
S'Rb'
p3728
sS'YCT-C8589'
p3729
S'Za'
p3730
sS'QY-YUWIN S10A'
p3731
S'Zc'
p3732
sS'BBG-vivo Y927'
p3733
S'Qc'
p3734
sS'TW-TONEWIN S8800'
p3735
S'Zb'
p3736
sS'FS-FS520'
p3737
S'Za'
p3738
sS'LG-KW820'
p3739
S'Zc'
p3740
sS'YL-Coolpad S116'
p3741
S'La'
p3742
sS'HS-Hisense C1T'
p3743
S'Td'
p3744
sS'SCH-SM W2015'
p3745
S'Df'
p3746
sS'GIO-GiONEE C800'
p3747
S'Rc'
p3748
sS'SCH-SM W2016'
p3749
S'Df'
p3750
sS'HW-C5700'
p3751
S'Aa'
p3752
sS'STW-TW168'
p3753
S'Za'
p3754
sS'SAF-C700'
p3755
S'Zd'
p3756
sS'SAF-C702'
p3757
S'Zc'
p3758
sS'BLW-VL612C'
p3759
S'Za'
p3760
sS'XD-U558S'
p3761
S'Za'
p3762
sS'SN-SENAP S10'
p3763
S'Za'
p3764
sS'SCH-I699I'
p3765
S'Db'
p3766
sS'GX-EF68'
p3767
S'Za'
p3768
sS'HX-HC Q7'
p3769
S'Za'
p3770
sS'XMP-2015112'
p3771
S'Ec'
p3772
sS'HX-HC Q1'
p3773
S'Za'
p3774
sS'YLT-UNC F2110C'
p3775
S'Za'
p3776
sS'SCH-i589'
p3777
S'Dc'
p3778
sS'SCH-i859'
p3779
S'De'
p3780
sS'TLT-LT X308'
p3781
S'Zb'
p3782
sS'SKB-koobee S200'
p3783
S'Zc'
p3784
sS'QX-C515'
p3785
S'Zb'
p3786
sS'DC-568'
p3787
S'Za'
p3788
sS'ZBH-BIHEE C15'
p3789
S'Za'
p3790
sS'ZBH-BIHEE C16'
p3791
S'Za'
p3792
sS'ZBH-BIHEE C11'
p3793
S'Za'
p3794
sS'ZBH-BIHEE C10'
p3795
S'Za'
p3796
sS'BW-BenWee S9'
p3797
S'Za'
p3798
sS'ZTE-N798'
p3799
S'Ia'
p3800
sS'LNV-E160C'
p3801
S'Ja'
p3802
sS'ZTE-N795'
p3803
S'Ia'
p3804
sS'TCL-D768'
p3805
S'Sb'
p3806
sS'UT-CD680'
p3807
S'Zc'
p3808
sS'HW-HUAWEI C8823'
p3809
S'Zc'
p3810
sS'DX-C186'
p3811
S'Zb'
p3812
sS'YX-YUSUN E80'
p3813
S'Zc'
p3814
sS'SCH-SM A3009'
p3815
S'Dc'
p3816
sS'YX-YUSUN E89'
p3817
S'Zb'
p3818
sS'YX-YUSUN E88'
p3819
S'Za'
p3820
sS'YL-N900+'
p3821
S'Lf'
p3822
sS'HYN-ALFA D81'
p3823
S'Zc'
p3824
sS'SW-S35'
p3825
S'Zc'
p3826
sS'OKW-A150'
p3827
S'Za'
p3828
sS'HW-F261'
p3829
S'Aa'
p3830
sS'OKW-A156'
p3831
S'Za'
p3832
sS'OKW-A158'
p3833
S'Za'
p3834
sS'YL-N900C'
p3835
S'Le'
p3836
sS'TW-X2011'
p3837
S'Za'
p3838
sS'HS-Hisense D5'
p3839
S'Td'
p3840
sS'YFZ-E20C'
p3841
S'Za'
p3842
sS'MYJ-MY E500'
p3843
S'Za'
p3844
sS'LNV-Lenovo A5500'
p3845
S'Jb'
p3846
sS'FDT-C58'
p3847
S'Za'
p3848
sS'HL-Q660'
p3849
S'Zc'
p3850
sS'FTT-B222'
p3851
S'Za'
p3852
sS'ZTE-C X763'
p3853
S'Ib'
p3854
sS'ZY-C68'
p3855
S'Za'
p3856
sS'JWG-GFIVE E800'
p3857
S'Za'
p3858
sS'OB-OPPO R7Plusm'
p3859
S'Pe'
p3860
sS'TY-K Touch E310'
p3861
S'Za'
p3862
sS'Hisen-C106'
p3863
S'Ta'
p3864
sS'HC-C2030'
p3865
S'Zc'
p3866
sS'SKB-koobee M6'
p3867
S'Zb'
p3868
sS'TCL-750'
p3869
S'Sc'
p3870
sS'LNV-Lenovo A750e'
p3871
S'Jb'
p3872
sS'HW-HUAWEI B199'
p3873
S'Ac'
p3874
sS'SJX-CIYO 520C'
p3875
S'Za'
p3876
sS'ZY-C92'
p3877
S'Za'
p3878
sS'ZTE-BA910'
p3879
S'Ic'
p3880
sS'SCH-i329'
p3881
S'De'
p3882
sS'LNV-Lenovo A3500'
p3883
S'Jb'
p3884
sS'CHL-A516C'
p3885
S'Ua'
p3886
sS'BBG-vivo X3V'
p3887
S'Qd'
p3888
sS'NT-NT108'
p3889
S'Za'
p3890
sS'ZBH-BIHEE A7'
p3891
S'Zb'
p3892
sS'SLY-SOYOO V7'
p3893
S'Za'
p3894
sS'ZBH-BIHEE A5'
p3895
S'Zc'
p3896
sS'BW-BenWee N7S'
p3897
S'Za'
p3898
sS'LG-KV700'
p3899
S'Xc'
p3900
sS'ZBH-BIHEE A8'
p3901
S'Zb'
p3902
sS'TG-Leimone E66'
p3903
S'Zb'
p3904
sS'YCT-F8909'
p3905
S'Za'
p3906
sS'BLF-lephone 2900'
p3907
S'Za'
p3908
sS'STW-TW99C'
p3909
S'Za'
p3910
sS'COOLPAD-219'
p3911
S'Lb'
p3912
sS'BLF-lephone 2908'
p3913
S'Zb'
p3914
sS'VIV-vivo V3Max A'
p3915
S'Qc'
p3916
sS'MYJ-MY V68'
p3917
S'Za'
p3918
sS'SCH-W299'
p3919
S'Dd'
p3920
sS'ZTE-C N880S'
p3921
S'Ib'
p3922
sS'ZY-FLY U1'
p3923
S'Zc'
p3924
sS'OBEE-V360'
p3925
S'Za'
p3926
sS'ZZB-Z9'
p3927
S'Za'
p3928
sS'NT-NT218'
p3929
S'Za'
p3930
sS'YL-D520'
p3931
S'Lb'
p3932
sS'YLT-UNC I801+'
p3933
S'Za'
p3934
sS'PXX-i310'
p3935
S'Za'
p3936
sS'XD-US5'
p3937
S'Zc'
p3938
sS'HS-E500'
p3939
S'Ta'
p3940
sS'XD-US68'
p3941
S'Za'
p3942
sS'ZTE-WP228'
p3943
S'Ia'
p3944
sS'STW-T W2015'
p3945
S'Zd'
p3946
sS'TCL-P606L'
p3947
S'Sc'
p3948
sS'JB-JC101'
p3949
S'Za'
p3950
sS'GX-EF812'
p3951
S'Zb'
p3952
sS'QL-CHERR E550'
p3953
S'Za'
p3954
sS'HYW-HYWY H060'
p3955
S'Za'
p3956
sS'SH-Saihon D50'
p3957
S'Za'
p3958
sS'SH-Saihon D51'
p3959
S'Za'
p3960
sS'JB-JC106'
p3961
S'Za'
p3962
sS'GLT-KP600E'
p3963
S'Zc'
p3964
sS'HW-HUAWEI ALE CL00'
p3965
S'Ac'
p3966
sS'YFZ-EPHONE E81V'
p3967
S'Zb'
p3968
sS'XZQ-CB V68'
p3969
S'Zb'
p3970
sS'BW-BenWee E6'
p3971
S'Zb'
p3972
sS'GX-EF816'
p3973
S'Zb'
p3974
sS'YL-Coolpad 5860+'
p3975
S'Lb'
p3976
sS'TCL-P688L'
p3977
S'Sb'
p3978
sS'FDT-E969'
p3979
S'Zb'
p3980
sS'YL-Coolpad E230'
p3981
S'Lb'
p3982
sS'GX-CF520'
p3983
S'Za'
p3984
sS'SCH-W589'
p3985
S'Dd'
p3986
sS'SN-SENAP N9'
p3987
S'Zb'
p3988
sS'YL-Coolpad E239'
p3989
S'Lb'
p3990
sS'YL-Coolpad 5930'
p3991
S'Lc'
p3992
sS'ZTE-N882E'
p3993
S'Zc'
p3994
sS'BLF-lephone 1900'
p3995
S'Za'
p3996
sS'ZTE-N919D'
p3997
S'Ic'
p3998
sS'YL-Coolpad Y91 921'
p3999
S'Lc'
p4000
sS'XD-US920'
p4001
S'Zb'
p4002
sS'SSY-EG588'
p4003
S'Zc'
p4004
sS'YFZ-E68C'
p4005
S'Za'
p4006
sS'SCH-F369'
p4007
S'Db'
p4008
sS'FDT-E819'
p4009
S'Za'
p4010
sS'HW-C7600'
p4011
S'Ad'
p4012
sS'VIV-vivo X6A'
p4013
S'Qd'
p4014
sS'XD-E1230'
p4015
S'Zd'
p4016
sS'OKW-C670'
p4017
S'Zb'
p4018
sS'YX-LA M1 2'
p4019
S'Zb'
p4020
sS'ZTE-C310'
p4021
S'Ia'
p4022
sS'ZTE-CS268'
p4023
S'Ib'
p4024
sS'HX-HE F6'
p4025
S'Za'
p4026
sS'HX-HE F7'
p4027
S'Za'
p4028
sS'HX-HE F4'
p4029
S'Za'
p4030
sS'SCH-S139'
p4031
S'Da'
p4032
sS'GXT-E890'
p4033
S'Zc'
p4034
sS'HX-HE F8'
p4035
S'Zb'
p4036
sS'XD-U966'
p4037
S'Za'
p4038
sS'YCT-TE35+'
p4039
S'Za'
p4040
sS'YXJ-N107'
p4041
S'Zd'
p4042
sS'YL-Coolpad S6 NC1'
p4043
S'Ld'
p4044
sS'DC-DCT T5e'
p4045
S'Za'
p4046
sS'HC-HE E757'
p4047
S'Zb'
p4048
sS'OT-E805C'
p4049
S'Zc'
p4050
sS'STW-T112'
p4051
S'Za'
p4052
sS'YL-Coolpad 5860S'
p4053
S'Lb'
p4054
sS'YFZ-E76'
p4055
S'Za'
p4056
sS'HW-C7266'
p4057
S'Ab'
p4058
sS'TLT-LT E838'
p4059
S'Za'
p4060
sS'XY-TruTalk DS 6202HL'
p4061
S'Ze'
p4062
sS'WB-V HOPE E968'
p4063
S'Za'
p4064
sS'OKW-i161'
p4065
S'Zb'
p4066
sS'ZTE-C S160'
p4067
S'Ia'
p4068
sS'HS-Hisense E621T'
p4069
S'Tb'
p4070
sS'ZTE-C S165'
p4071
S'Ia'
p4072
sS'HW-HUAWEI C5720'
p4073
S'Aa'
p4074
sS'CEA-S610'
p4075
S'Zc'
p4076
sS'HC-HE EG500'
p4077
S'Zb'
p4078
sS'ZHT-HT 520'
p4079
S'Za'
p4080
sS'DX-C300'
p4081
S'Zb'
p4082
sS'BLW-VE500'
p4083
S'Za'
p4084
sS'YL-Coolpad Y72 921'
p4085
S'Lc'
p4086
sS'HC-CG220'
p4087
S'Zb'
p4088
sS'GH-ChonghongC300'
p4089
S'Zc'
p4090
sS'CW-Skyworth SE19'
p4091
S'Wa'
p4092
sS'TW-E530'
p4093
S'Za'
p4094
sS'HT-A99'
p4095
S'Za'
p4096
sS'TY-A908'
p4097
S'Zc'
p4098
sS'DES-E666'
p4099
S'Zd'
p4100
sS'ZH-CZ i920'
p4101
S'Ze'
p4102
sS'YFZ-EPHONE E65V'
p4103
S'Za'
p4104
sS'HW-HUAWEI Y535D C00'
p4105
S'Ab'
p4106
sS'TY-A901'
p4107
S'Zc'
p4108
sS'SCH-SM G7509'
p4109
S'Dd'
p4110
sS'TY-A905'
p4111
S'Zc'
p4112
sS'LNV-Lenovo A68e'
p4113
S'Jb'
p4114
sS'HW-C8000'
p4115
S'Ac'
p4116
sS'BW-BenWee S6'
p4117
S'Za'
p4118
sS'JWG-GFIVE E86'
p4119
S'Zb'
p4120
sS'BLW-VE4000'
p4121
S'Zb'
p4122
sS'SCH-SM N7509V'
p4123
S'Dd'
p4124
sS'ZTE-C S300'
p4125
S'Ia'
p4126
sS'KZ-V360'
p4127
S'Za'
p4128
sS'OT-S211C'
p4129
S'Sa'
p4130
sS'QL-CHERR E51'
p4131
S'Zb'
p4132
sS'LNV-E210C'
p4133
S'Zc'
p4134
sS'HX-HEG D30'
p4135
S'Zb'
p4136
sS'SJX-C610'
p4137
S'Zb'
p4138
sS'SZY-ZY189'
p4139
S'Za'
p4140
sS'LSY-Letv X800+'
p4141
S'Bd'
p4142
sS'GX-EF88A'
p4143
S'Za'
p4144
sS'LLB-520'
p4145
S'Za'
p4146
sS'TCL-i806'
p4147
S'Sc'
p4148
sS'XD-US900'
p4149
S'Zb'
p4150
sS'SCH-i919'
p4151
S'Dd'
p4152
sS'JH-V8'
p4153
S'Ze'
p4154
sS'SCH-W629'
p4155
S'De'
p4156
sS'YL-Coolpad 5879'
p4157
S'Lb'
p4158
sS'BLW-VD520'
p4159
S'Za'
p4160
sS'HYW-HYWY H109'
p4161
S'Za'
p4162
sS'HS-E350'
p4163
S'Tb'
p4164
sS'SHT-HTT H558'
p4165
S'Za'
p4166
sS'SMQ-EV301'
p4167
S'Za'
p4168
sS'FDT-C800+'
p4169
S'Za'
p4170
sS'OT-S669C'
p4171
S'Sc'
p4172
sS'RY-RY618'
p4173
S'Za'
p4174
sS'WB-V HOPE E101'
p4175
S'Za'
p4176
sS'WB-V HOPE E102'
p4177
S'Za'
p4178
sS'WB-V HOPE E105'
p4179
S'Za'
p4180
sS'WB-V HOPE E106'
p4181
S'Za'
p4182
sS'STW-TW199'
p4183
S'Za'
p4184
sS'TCL-P316L'
p4185
S'Sa'
p4186
sS'OB-OPPO A37m'
p4187
S'Pc'
p4188
sS'FCJ-EV757'
p4189
S'Zc'
p4190
sS'HC-C5000'
p4191
S'Za'
p4192
sS'LNV-Lenovo 3GC101'
p4193
S'Jc'
p4194
sS'HW-KIW CL00'
p4195
S'Ac'
p4196
sS'ZTE-Q701C'
p4197
S'Ib'
p4198
sS'DW-DOOV L8 Plus'
p4199
S'Zc'
p4200
sS'GX-EF866'
p4201
S'Zb'
p4202
sS'SKB-koobee S500Q'
p4203
S'Zc'
p4204
sS'DC-558'
p4205
S'Za'
p4206
sS'LG-CT100'
p4207
S'Xa'
p4208
sS'TCL-J936D'
p4209
S'Sb'
p4210
sS'YCT-F8919'
p4211
S'Zb'
p4212
sS'SCH-X969'
p4213
S'Da'
p4214
sS'SW-Q3510'
p4215
S'Zb'
p4216
sS'SCH-I919U'
p4217
S'Dc'
p4218
sS'BLW-VD850'
p4219
S'Zb'
p4220
sS'HX-I01'
p4221
S'Zc'
p4222
sS'ZTE-N788'
p4223
S'Ia'
p4224
sS'HW-C5600'
p4225
S'Ab'
p4226
sS'HUALI-8800'
p4227
S'Zc'
p4228
sS'TCL-C802'
p4229
S'Sb'
p4230
sS'DC-DCT T5'
p4231
S'Za'
p4232
sS'SCH-SM A7009'
p4233
S'Dd'
p4234
sS'KM-Kumai 920'
p4235
S'Za'
p4236
sS'LG-KX126'
p4237
S'Zc'
p4238
sS'FZ-HX2010'
p4239
S'Zc'
p4240
sS'XMP-2015815'
p4241
S'Eb'
p4242
sS'YL-Coolpad Y80D'
p4243
S'Lb'
p4244
sS'XMP-2015817'
p4245
S'Eb'
p4246
sS'XMP-2015811'
p4247
S'Eb'
p4248
sS'OKW-A160'
p4249
S'Zb'
p4250
sS'OT-S659'
p4251
S'Sc'
p4252
sS'SCH-SM G6000'
p4253
S'Dc'
p4254
sS'HW-HUAWEI Y300C'
p4255
S'Ab'
p4256
sS'GIO-GiONEE F103S'
p4257
S'Rb'
p4258
sS'SCH-I519'
p4259
S'Db'
p4260
sS'HS-E6'
p4261
S'Tc'
p4262
sS'HS-E7'
p4263
S'Tc'
p4264
sS'HW-HUAWEI Y320 C00'
p4265
S'Aa'
p4266
sS'MOT-EX201'
p4267
S'Vb'
p4268
sS'MOT-EX200'
p4269
S'Vb'
p4270
sS'HS-E8'
p4271
S'Td'
p4272
sS'BK-Coobe i539'
p4273
S'Za'
p4274
sS'ZBH-BIHEE C50'
p4275
S'Za'
p4276
sS'LG-KX266'
p4277
S'Xb'
p4278
sS'ZTE-C X771'
p4279
S'Ib'
p4280
sS'AMO-AMOI E800C'
p4281
S'Za'
p4282
sS'FDT-C500'
p4283
S'Za'
p4284
sS'IVV-SS1 03'
p4285
S'Zd'
p4286
sS'HW-HUAWEI GRA CL10'
p4287
S'Ae'
p4288
sS'MZ-Y685C'
p4289
S'Fb'
p4290
sS'YL-Coolpad E570'
p4291
S'Lc'
p4292
sS'HX-HE F55'
p4293
S'Za'
p4294
sS'LNV-Lenovo A365e'
p4295
S'Ja'
p4296
sS'ZTE-C321+'
p4297
S'Ia'
p4298
sS'YXJ-N100'
p4299
S'Zc'
p4300
sS'HW-HUAWEI C8500S'
p4301
S'Ab'
p4302
sS'CHL-E 5300'
p4303
S'Ub'
p4304
sS'ML-TY6300'
p4305
S'Za'
p4306
sS'HS-ET919'
p4307
S'Tc'
p4308
sS'SCH-SM G3509'
p4309
S'Db'
p4310
sS'ZY-FLY F2'
p4311
S'Za'
p4312
sS'ZTE-CF290'
p4313
S'Ib'
p4314
sS'SHL-LC101'
p4315
S'Za'
p4316
sS'GIO-GIONEE GN9012'
p4317
S'Rd'
p4318
sS'HX-HE N100'
p4319
S'Zb'
p4320
sS'DS-TY218'
p4321
S'Za'
p4322
sS'OW-AW C320'
p4323
S'Za'
p4324
sS'YCT-F8916'
p4325
S'Zb'
p4326
sS'YL-D280'
p4327
S'Lc'
p4328
sS'HX-I02'
p4329
S'Zc'
p4330
sS'RIM-BlackBerry 9650'
p4331
S'Ze'
p4332
sS'Hisen-C206'
p4333
S'Ta'
p4334
sS'HW-HUAWEI P7 L09'
p4335
S'Ad'
p4336
sS'YL-Coolpad 5263S'
p4337
S'La'
p4338
sS'TY-K Touch E621'
p4339
S'Za'
p4340
sS'KON-MTS928'
p4341
S'Zc'
p4342
sS'YL-D510'
p4343
S'Lb'
p4344
sS'YL-Coolpad N916'
p4345
S'Lc'
p4346
sS'MYJ-MY E999'
p4347
S'Za'
p4348
sS'HS-Hisense I632T'
p4349
S'Tc'
p4350
sS'XMP-MI ONE C1'
p4351
S'Ec'
p4352
sS'FDT-F8'
p4353
S'Zb'
p4354
sS'CW-Skyworth EG36'
p4355
S'Wb'
p4356
sS'XD-US58'
p4357
S'Za'
p4358
sS'TY-E90'
p4359
S'Za'
p4360
sS'CW-Skyworth EG30'
p4361
S'Wc'
p4362
sS'MOTOR-Z1'
p4363
S'Vc'
p4364
sS'BLF-lephone 2802'
p4365
S'Za'
p4366
sS'ZHT-HT 586'
p4367
S'Za'
p4368
sS'BLF-lephone 2800'
p4369
S'Za'
p4370
sS'HTW-C66'
p4371
S'Zd'
p4372
sS'SCH-I779'
p4373
S'Dc'
p4374
sS'TCL-E227C'
p4375
S'Sa'
p4376
sS'TY-K Touch E70'
p4377
S'Zb'
p4378
sS'SJX-CIYO S7'
p4379
S'Za'
p4380
sS'YCT-TE690'
p4381
S'Za'
p4382
sS'TCL-S679'
p4383
S'Sc'
p4384
sS'CW-Skyworth EG6188'
p4385
S'Wb'
p4386
sS'YFZ-EPHONE E53'
p4387
S'Za'
p4388
sS'MLC-X480'
p4389
S'Zb'
p4390
sS'PXX-K390v'
p4391
S'Za'
p4392
sS'ZXY-ZTE C X500'
p4393
S'Ia'
p4394
sS'SHT-HTT H639+'
p4395
S'Za'
p4396
sS'YL-299'
p4397
S'Ld'
p4398
sS'YL-298'
p4399
S'Ld'
p4400
sS'PXX-i310v'
p4401
S'Za'
p4402
sS'SCH-F399'
p4403
S'Db'
p4404
sS'HYF-HYF6700'
p4405
S'Za'
p4406
sS'SMQ-EA6000'
p4407
S'Zc'
p4408
sS'STW-TW98C'
p4409
S'Za'
p4410
sS'QY-YUWIN A8088'
p4411
S'Zb'
p4412
sS'SCH-F379'
p4413
S'Db'
p4414
sS'FDT-E829'
p4415
S'Za'
p4416
sS'NYG-E5880'
p4417
S'Zb'
p4418
sS'CW-CC10'
p4419
S'Wc'
p4420
sS'TY-K Touch E88B'
p4421
S'Zb'
p4422
sS'ZTE-C360'
p4423
S'Ia'
p4424
sS'ZTE-C361'
p4425
S'Ia'
p4426
sS'ZTE-C362'
p4427
S'Ia'
p4428
sS'HW-HUAWEI Y330 C00'
p4429
S'Ab'
p4430
sS'XZY-GC901'
p4431
S'Zc'
p4432
sS'ZTE-C369'
p4433
S'Ia'
p4434
sS'GX-CF330'
p4435
S'Za'
p4436
sS'GX-E900'
p4437
S'Zb'
p4438
sS'YL-728'
p4439
S'Ld'
p4440
sS'YL-Coolpad 5899'
p4441
S'Lb'
p4442
sS'QY-H80'
p4443
S'Za'
p4444
sS'YL-Coolpad 5891'
p4445
S'Lb'
p4446
sS'HW-HUAWEI C8600'
p4447
S'Ab'
p4448
sS'YL-Coolpad 5892'
p4449
S'Lb'
p4450
sS'YX-YUSUN E96'
p4451
S'Zb'
p4452
sS'HW-HUAWEI C5730'
p4453
S'Aa'
p4454
sS'DX-C9000'
p4455
S'Ze'
p4456
sS'HW-HUAWEI C5736'
p4457
S'Aa'
p4458
sS'HW-HUAWEI C5737'
p4459
S'Aa'
p4460
sS'QK-1501 A02'
p4461
S'Hb'
p4462
sS'HW-HUAWEI C5735'
p4463
S'Aa'
p4464
sS'VIV-vivo X6Plus A'
p4465
S'Qd'
p4466
sS'YFZ-E15C'
p4467
S'Za'
p4468
sS'HW-C7100'
p4469
S'Ab'
p4470
sS'TCL-P689L'
p4471
S'Sc'
p4472
sS'SH-Saihon I91'
p4473
S'Za'
p4474
sS'SH-Saihon I90'
p4475
S'Zb'
p4476
sS'HW-HUAWEI C8813'
p4477
S'Ab'
p4478
sS'CW-Skyworth SE60'
p4479
S'Wb'
p4480
sS'SH-Saihon I97'
p4481
S'Za'
p4482
sS'SH-Saihon I98'
p4483
S'Za'
p4484
sS'NOKIA-1315'
p4485
S'Za'
p4486
sS'TCL-T6'
p4487
S'Sb'
p4488
sS'SCH-SM G9250'
p4489
S'Df'
p4490
sS'NJX-EXUN X6+'
p4491
S'Zc'
p4492
sS'BLW-VD600'
p4493
S'Za'
p4494
sS'HW-HUAWEI C8817'
p4495
S'Ab'
p4496
sS'BK-Coobe A520'
p4497
S'Za'
p4498
sS'GIO-GiONEE GN5002'
p4499
S'Rc'
p4500
sS'ABL-A9288'
p4501
S'Za'
p4502
sS'SM-Kingpad E810'
p4503
S'Za'
p4504
sS'HS-C68'
p4505
S'Tb'
p4506
sS'VIV-vivo X5Pro V'
p4507
S'Qd'
p4508
sS'BLW-VL656C'
p4509
S'Zb'
p4510
sS'YFZ-EPHONE E628'
p4511
S'Zb'
p4512
sS'VIV-vivo Y913'
p4513
S'Qb'
p4514
sS'CW-Q69'
p4515
S'Wa'
p4516
sS'HS-EG657'
p4517
S'Tc'
p4518
sS'YX-YUSUN E98'
p4519
S'Zb'
p4520
sS'XZY-GC601'
p4521
S'Za'
p4522
sS'XZY-GC602'
p4523
S'Za'
p4524
sS'SHL-HB520'
p4525
S'Za'
p4526
sS'HW-HUAWEI TIT CL10'
p4527
S'Ab'
p4528
sS'MOT-XT1085'
p4529
S'Ve'
p4530
sS'BLW-VD513'
p4531
S'Za'
p4532
sS'CHD-ChanghongC05'
p4533
S'Zb'
p4534
sS'SCH-i909'
p4535
S'De'
p4536
sS'XD-US910'
p4537
S'Zc'
p4538
sS'YD-K76'
p4539
S'Ze'
p4540
sS'KON-EG939'
p4541
S'Za'
p4542
sS'GX-EF860'
p4543
S'Za'
p4544
sS'HW-C8100'
p4545
S'Ad'
p4546
sS'HC-C720'
p4547
S'Zc'
p4548
sS'ZTE-C R750+'
p4549
S'Ia'
p4550
sS'HS-C177'
p4551
S'Ta'
p4552
sS'CHL-A168C'
p4553
S'Ua'
p4554
sS'HS-C170'
p4555
S'Ta'
p4556
sS'ZTE-C S200'
p4557
S'Ib'
p4558
sS'RY-RY608'
p4559
S'Zb'
p4560
sS'TY-B2033C'
p4561
S'Za'
p4562
sS'BD-Bird E300'
p4563
S'Za'
p4564
sS'ZYD-C508'
p4565
S'Za'
p4566
sS'SYS-UC108'
p4567
S'Za'
p4568
sS'YL-Coolpad T2 00'
p4569
S'Lc'
p4570
sS'TY-K Touch X1'
p4571
S'Zc'
p4572
sS'YFZ-EPHONE E62V'
p4573
S'Za'
p4574
sS'DC-E718'
p4575
S'Za'
p4576
sS'DC-E717'
p4577
S'Za'
p4578
sS'GX-EF320'
p4579
S'Za'
p4580
sS'BLW-VD862'
p4581
S'Zb'
p4582
sS'ZBH-BIHEE C30'
p4583
S'Za'
p4584
sS'SCH-X979'
p4585
S'Db'
p4586
sS'OB-OPPO A59m'
p4587
S'Pc'
p4588
sS'MZ-M578C'
p4589
S'Fb'
p4590
sS'ZRJ-H838'
p4591
S'Za'
p4592
sS'QX-COSUN 118'
p4593
S'Za'
p4594
sS'SYS-UC88'
p4595
S'Za'
p4596
sS'HS-E260T'
p4597
S'Tb'
p4598
sS'YL-D08'
p4599
S'Lc'
p4600
sS'HTC-Z510d'
p4601
S'Nd'
p4602
sS'DX-CN747'
p4603
S'Zd'
p4604
sS'OKW-C370'
p4605
S'Zb'
p4606
sS'SCH-SM T2519'
p4607
S'Dd'
p4608
sS'BK-Coobe A100D'
p4609
S'Za'
p4610
sS'LG-KX136'
p4611
S'Zc'
p4612
sS'KM-Kumai 918'
p4613
S'Zb'
p4614
sS'KM-Kumai 919'
p4615
S'Zc'
p4616
sS'TCL-OTS669C'
p4617
S'Sc'
p4618
sS'TY-E68'
p4619
S'Zd'
p4620
sS'TY-E61'
p4621
S'Zd'
p4622
sS'HTC-M8Sd'
p4623
S'Nd'
p4624
sS'HX-HCG D21'
p4625
S'Za'
p4626
sS'YFZ-EPHONE 520'
p4627
S'Za'
p4628
sS'SCH-S569'
p4629
S'Db'
p4630
sS'OKW-OKWAP C900'
p4631
S'Zc'
p4632
sS'BK-Coobe i508'
p4633
S'Za'
p4634
sS'ZXY-ZTE C X998'
p4635
S'Ib'
p4636
sS'SCH-SM G5309W'
p4637
S'Dc'
p4638
sS'HTC-A315c'
p4639
S'Nd'
p4640
sS'GX-EF69A'
p4641
S'Za'
p4642
sS'SCH-SM A7100'
p4643
S'Dd'
p4644
sS'HW-HUAWEI VNS CL00'
p4645
S'Ac'
p4646
sS'HL-Q680'
p4647
S'Zc'
p4648
sS'NYG-S8880'
p4649
S'Zb'
p4650
sS'TCL-J900C'
p4651
S'Sb'
p4652
sS'SCH-I619'
p4653
S'Da'
p4654
sS'HS-D907'
p4655
S'Td'
p4656
sS'Hisen-C306'
p4657
S'Tb'
p4658
sS'HL-E998'
p4659
S'Zc'
p4660
sS'TW-UC100'
p4661
S'Za'
p4662
sS'Hisen-D806'
p4663
S'Td'
p4664
sS'GX-CF656'
p4665
S'Zc'
p4666
sS'WW-WayTone D2'
p4667
S'Zc'
p4668
sS'SHX-U08'
p4669
S'Za'
p4670
sS'ZTE-C D300'
p4671
S'Ic'
p4672
sS'LNV-Lenovo A630e'
p4673
S'Jb'
p4674
sS'HS-EG828'
p4675
S'Ta'
p4676
sS'ZBH-BIHEE C6'
p4677
S'Za'
p4678
sS'ZY-FLY E6'
p4679
S'Za'
p4680
sS'ZY-FLY E5'
p4681
S'Za'
p4682
sS'TY-K Touch C966e'
p4683
S'Za'
p4684
sS'HW-HUAWEI CRR CL20'
p4685
S'Ae'
p4686
sS'XZQ-EG318'
p4687
S'Zd'
p4688
sS'JB-JEEPONT X'
p4689
S'Za'
p4690
sS'SJM-JIMI DS09'
p4691
S'Za'
p4692
sS'CHL-E5700'
p4693
S'Ua'
p4694
sS'DS-TY208'
p4695
S'Za'
p4696
sS'LG-KV600'
p4697
S'Xc'
p4698
sS'JP-CV777'
p4699
S'Zb'
p4700
sS'TY-K Touch E619'
p4701
S'Za'
p4702
sS'NJX-EXUN C688'
p4703
S'Zb'
p4704
sS'WST-100AS'
p4705
S'Zb'
p4706
sS'YL-8298 A01'
p4707
S'Lc'
p4708
sS'TY-K Touch E610'
p4709
S'Zc'
p4710
sS'YCT-TE600'
p4711
S'Za'
p4712
sS'XLJ-LA S6'
p4713
S'Zc'
p4714
sS'TY-K Touch E616'
p4715
S'Zb'
p4716
sS'PXX-X130va'
p4717
S'Zc'
p4718
sS'HTC-C620d'
p4719
S'Nc'
p4720
sS'YL-D508'
p4721
S'Lc'
p4722
sS'CHL-ES2000'
p4723
S'Ud'
p4724
sS'VIV-vivo X6S A'
p4725
S'Qd'
p4726
sS'YFZ-EPHONE 4S'
p4727
S'Zc'
p4728
sS'HW-HUAWEI NXT CL00'
p4729
S'Ad'
p4730
sS'SYL-M5S'
p4731
S'Zc'
p4732
sS'BD-Bird L11'
p4733
S'Za'
p4734
sS'JDW-Jadeway V5'
p4735
S'Zc'
p4736
sS'YHY-ViewSonic Q8'
p4737
S'Zd'
p4738
sS'FDT-C868'
p4739
S'Za'
p4740
sS'TY-K Touch E508'
p4741
S'Zc'
p4742
sS'FDT-C860'
p4743
S'Zb'
p4744
sS'YL-Coolpad 9190L C00'
p4745
S'Lb'
p4746
sS'FDT-C865'
p4747
S'Za'
p4748
sS'FDT-C867'
p4749
S'Za'
p4750
sS'SCH-SM A5009'
p4751
S'Dd'
p4752
sS'KM-Kumai N8'
p4753
S'Za'
p4754
sS'LNV-Lenovo S860e'
p4755
S'Jc'
p4756
sS'HYF-E600'
p4757
S'Za'
p4758
sS'YL-268'
p4759
S'Lc'
p4760
sS'BLW-E321'
p4761
S'Za'
p4762
sS'YCT-S500+'
p4763
S'Za'
p4764
sS'GX-CF500'
p4765
S'Zb'
p4766
sS'ZTE-N880G'
p4767
S'Ib'
p4768
sS'ZTE-N880F'
p4769
S'Ib'
p4770
sS'ZTE-N880E'
p4771
S'Ib'
p4772
sS'Nokia-6275'
p4773
S'Zc'
p4774
sS'LG-KV500'
p4775
S'Xd'
p4776
sS'QJ-Q2'
p4777
S'Zb'
p4778
sS'FDT-E830'
p4779
S'Za'
p4780
sS'QL-i58'
p4781
S'Zc'
p4782
sS'HS-CM82'
p4783
S'Tb'
p4784
sS'HW-HUAWEI C8500'
p4785
S'Ab'
p4786
sS'KM-Kumai 260'
p4787
S'Za'
p4788
sS'YCT-TE570'
p4789
S'Zb'
p4790
sS'NWS-NIVS NE20'
p4791
S'Zb'
p4792
sS'OKW-OKWAP i730'
p4793
S'Zb'
p4794
sS'CHL-S9388'
p4795
S'Ua'
p4796
sS'ZBH-BIHEE C20A'
p4797
S'Za'
p4798
sS'ZTE-C370'
p4799
S'Ia'
p4800
sS'ZBH-BIHEE C20M'
p4801
S'Za'
p4802
sS'SCH-S159'
p4803
S'Db'
p4804
sS'TY-K Touch E88A'
p4805
S'Zc'
p4806
sS'GX-KINGSUN F6'
p4807
S'Zc'
p4808
sS'GX-KINGSUN F4'
p4809
S'Za'
p4810
sS'GX-KINGSUN F2'
p4811
S'Zb'
p4812
sS'XYT-C310'
p4813
S'Za'
p4814
sS'LNV-Lenovo A330e'
p4815
S'Ja'
p4816
sS'GX-KINGSUN F1'
p4817
S'Za'
p4818
sS'SHT-HTT H118'
p4819
S'Za'
p4820
sS'AMO-N7'
p4821
S'Zd'
p4822
sS'YL-Coolpad 5880'
p4823
S'Lb'
p4824
sS'TY-E329'
p4825
S'Za'
p4826
sS'AIG-600C'
p4827
S'Zb'
p4828
sS'SH-Saihon X6'
p4829
S'Za'
p4830
sS'SH-Saihon X5'
p4831
S'Za'
p4832
sS'SH-Saihon X3'
p4833
S'Za'
p4834
sS'BLW-VD610'
p4835
S'Za'
p4836
sS'NOK-8208'
p4837
S'Zd'
p4838
sS'HW-HUAWEI GRA CL00'
p4839
S'Ad'
p4840
sS'GXT-E880'
p4841
S'Zc'
p4842
sS'FTT-FT 06'
p4843
S'Za'
p4844
sS'HC-C600'
p4845
S'Za'
p4846
sS'HS-E316'
p4847
S'Ta'
p4848
sS'YFZ-EPHONE E63V'
p4849
S'Za'
p4850
sS'ZXH-ZK8812'
p4851
S'Za'
p4852
sS'OKW-C192'
p4853
S'Za'
p4854
sS'HTC-709d'
p4855
S'Nc'
p4856
sS'GSB-GA81'
p4857
S'Zc'
p4858
sS'HW-EVA CL00'
p4859
S'Ad'
p4860
sS'HS-C10'
p4861
S'Tb'
p4862
sS'VIV-vivo Y923'
p4863
S'Qb'
p4864
sS'SHP-SH6120CT'
p4865
S'Zc'
p4866
sS'CW-Skyworth PE90'
p4867
S'Wb'
p4868
sS'PT-C608'
p4869
S'Za'
p4870
sS'SCH-SM A8000'
p4871
S'Dd'
p4872
sS'TLT-LT E16'
p4873
S'Za'
p4874
sS'TLT-LT E11'
p4875
S'Za'
p4876
sS'CW-Skyworth PE95'
p4877
S'Wb'
p4878
sS'LSY-Letv X900+'
p4879
S'Be'
p4880
sS'SCH-W789'
p4881
S'De'
p4882
sS'NJX-EXUN X8'
p4883
S'Zc'
p4884
sS'QJ-QIGI V880'
p4885
S'Ze'
p4886
sS'HW-HUAWEI Y635 CL00'
p4887
S'Ab'
p4888
sS'NJX-EXUN X6'
p4889
S'Zc'
p4890
sS'ZTE-C2016'
p4891
S'Id'
p4892
sS'KS-16FC'
p4893
S'Za'
p4894
sS'BLW-VD506'
p4895
S'Zb'
p4896
sS'HW-HUAWEI TIT CL00'
p4897
S'Ab'
p4898
sS'YL-Coolpad 8675 A'
p4899
S'Lc'
p4900
sS'SN-SENAP N16'
p4901
S'Zb'
p4902
sS'ZY-FLY E6C'
p4903
S'Za'
p4904
sS'MOT-A1890'
p4905
S'Vd'
p4906
sS'SN-SENAP N18'
p4907
S'Zb'
p4908
sS'LNV-Lenovo A3910e70'
p4909
S'Jb'
p4910
sS'HS-C100'
p4911
S'Ta'
p4912
sS'FDT-E939'
p4913
S'Za'
p4914
sS'TL-Twin T69'
p4915
S'Za'
p4916
sS'TL-Twin T66'
p4917
S'Zb'
p4918
sS'HS-C108'
p4919
S'Ta'
p4920
sS'MOT-XT1077'
p4921
S'Vc'
p4922
sS'FRH-7100'
p4923
S'Za'
p4924
sS'GX-EF35'
p4925
S'Za'
p4926
sS'OKW-OKWAP C630'
p4927
S'Zb'
p4928
sS'ZTE-C R630'
p4929
S'Ic'
p4930
sS'SAF-Philips D613'
p4931
S'Zc'
p4932
sS'SAF-Philips D612'
p4933
S'Zc'
p4934
sS'SCH-i809'
p4935
S'Dd'
p4936
sS'YCT-TE800'
p4937
S'Za'
p4938
sS'GX-EF68A'
p4939
S'Za'
p4940
sS'FTW-PH E30'
p4941
S'Za'
p4942
sS'GX-EF660'
p4943
S'Za'
p4944
sS'SCH-W799'
p4945
S'Df'
p4946
sS'SGP-EBEST E68'
p4947
S'Zb'
p4948
sS'ZTE-C S325'
p4949
S'Zc'
p4950
sS'ZTE-C880D'
p4951
S'Ib'
p4952
sS'ZTE-C S320'
p4953
S'Zc'
p4954
sS'NUB-NX513J'
p4955
S'Kd'
p4956
sS'YL-7360'
p4957
S'Ld'
p4958
sS'ZBH-BIHEE C20'
p4959
S'Za'
p4960
sS'ZTE-C R200'
p4961
S'Ib'
p4962
sS'HTC-T528d'
p4963
S'Nc'
p4964
sS'HS-S17'
p4965
S'Ta'
p4966
sS'MYJ-MY E86'
p4967
S'Za'
p4968
sS'YL-Coolpad S126'
p4969
S'La'
p4970
sS'SAF-D900'
p4971
S'Zc'
p4972
sS'LNV-Lenovo K910e'
p4973
S'Je'
p4974
sS'SAF-D908'
p4975
S'Ze'
p4976
sS'YL-D18'
p4977
S'Lc'
p4978
sS'YFZ-EPHONE E29C'
p4979
S'Za'
p4980
sS'ZTE-J G380'
p4981
S'Ic'
p4982
sS'RZ-R2015'
p4983
S'Za'
p4984
sS'YL-D16'
p4985
S'Lc'
p4986
sS'HS-C299'
p4987
S'Ta'
p4988
sS'HS-C298'
p4989
S'Ta'
p4990
sS'HW-HUAWEI G718'
p4991
S'Ab'
p4992
sS'ZTE-N855'
p4993
S'Ib'
p4994
sS'GX-CF328'
p4995
S'Za'
p4996
sS'ZTE-A880'
p4997
S'Ib'
p4998
sS'HT-i57'
p4999
S'Za'
p5000
sS'BD-Bird AE750'
p5001
S'Zb'
p5002
sS'XMP-2014726'
p5003
S'Ec'
p5004
sS'ZH-CHIVA E28A'
p5005
S'Zc'
p5006
sS'DT-S26'
p5007
S'Zb'
p5008
sS'ZZB-palmd Z6'
p5009
S'Za'
p5010
sS'HTW-C8802'
p5011
S'Za'
p5012
sS'ZTE-C N780'
p5013
S'Ib'
p5014
sS'DT-S22'
p5015
S'Za'
p5016
sS'HTC-T329d'
p5017
S'Nc'
p5018
sS'TY-K Touch E339'
p5019
S'Zd'
p5020
sS'XD-U2013'
p5021
S'Zc'
p5022
sS'ZTE-C GA360'
p5023
S'Ia'
p5024
sS'BK-Coobe V300'
p5025
S'Za'
p5026
sS'SQC-GO JL621'
p5027
S'Zc'
p5028
sS'YL-Coolpad D518'
p5029
S'Lb'
p5030
sS'ZTE-C GA366'
p5031
S'Ib'
p5032
sS'SQC-GO JL628'
p5033
S'Zc'
p5034
sS'SCH-M519'
p5035
S'Db'
p5036
sS'BLW-E661'
p5037
S'Za'
p5038
sS'BLW-E662'
p5039
S'Za'
p5040
sS'SCH-E189'
p5041
S'Da'
p5042
sS'RZ-R210'
p5043
S'Za'
p5044
sS'HW-S7 601c'
p5045
S'Ac'
p5046
sS'DC-DCT C100'
p5047
S'Za'
p5048
sS'GIO-C100'
p5049
S'Ra'
p5050
sS'KLX-GK980'
p5051
S'Zc'
p5052
sS'UT-CD500'
p5053
S'Zb'
p5054
sS'BLW-E2013'
p5055
S'Zc'
p5056
sS'YFZ-EPHONE bee2A'
p5057
S'Zb'
p5058
sS'SHL-H3119'
p5059
S'Za'
p5060
sS'AMO-V870'
p5061
S'Zc'
p5062
sS'OKW-A116'
p5063
S'Za'
p5064
sS'XD-US699'
p5065
S'Za'
p5066
sS'YLT-UNC E9'
p5067
S'Za'
p5068
sS'YLT-UNC E8'
p5069
S'Za'
p5070
sS'HTC-X515d'
p5071
S'Nd'
p5072
sS'HX-HE N300'
p5073
S'Zb'
p5074
sS'TY-K Touch E600'
p5075
S'Zc'
p5076
sS'VIV-vivo X5V'
p5077
S'Qc'
p5078
sS'ZTE-C N880'
p5079
S'Ib'
p5080
sS'HW-FRD AL10'
p5081
S'Ae'
p5082
sS'GX-EF58'
p5083
S'Za'
p5084
sS'GXQ-C308'
p5085
S'Zb'
p5086
sS'YV-SS2 01'
p5087
S'Zd'
p5088
sS'SNM-M35c'
p5089
S'Oc'
p5090
sS'HW-HUAWEI C8860E'
p5091
S'Ac'
p5092
sS'HL-S218'
p5093
S'Za'
p5094
sS'SH-Saihon I901'
p5095
S'Zb'
p5096
sS'CW-Skyworth SE69'
p5097
S'Wb'
p5098
sS'BD-C568'
p5099
S'Zb'
p5100
sS'YCT-TC202'
p5101
S'Zb'
p5102
sS'TCL-P520L'
p5103
S'Sb'
p5104
sS'BD-Bird F15'
p5105
S'Zb'
p5106
sS'FDT-C876'
p5107
S'Za'
p5108
sS'LQ-P900E'
p5109
S'Za'
p5110
sS'TCL-S659'
p5111
S'Sc'
p5112
sS'XD-US98'
p5113
S'Za'
p5114
sS'OB-OPPO A51kc'
p5115
S'Pc'
p5116
sS'YT-UC900'
p5117
S'Zb'
p5118
sS'YCT-TY300'
p5119
S'Zb'
p5120
sS'SCH-W319'
p5121
S'Dc'
p5122
sS'YCT-CT01'
p5123
S'Za'
p5124
sS'ZTE-C160'
p5125
S'Ia'
p5126
sS'YCT-TE31'
p5127
S'Za'
p5128
sS'YCT-Ctyon M6'
p5129
S'Zc'
p5130
sS'YCT-TE35'
p5131
S'Za'
p5132
sS'NJX-E626'
p5133
S'Za'
p5134
sS'ZY-FLY V6'
p5135
S'Za'
p5136
sS'BRS-BROR D508'
p5137
S'Za'
p5138
sS'Nokia-6268'
p5139
S'Zc'
p5140
sS'GXT-E330'
p5141
S'Za'
p5142
sS'LG-KX755'
p5143
S'Xd'
p5144
sS'LG-KV510'
p5145
S'Xc'
p5146
sS'HW-C2860'
p5147
S'Aa'
p5148
sS'HW-HUAWEI C7350'
p5149
S'Zc'
p5150
sS'YL-N92'
p5151
S'Le'
p5152
sS'LNV-Lenovo S870e'
p5153
S'Jb'
p5154
sS'YL-N91'
p5155
S'Ld'
p5156
sS'SCH-F359'
p5157
S'Db'
p5158
sS'YCT-TE560'
p5159
S'Za'
p5160
sS'LNV-Lenovo A820e'
p5161
S'Jb'
p5162
sS'RIM-BlackBerry 9850'
p5163
S'Zd'
p5164
sS'ZTE-C GA300'
p5165
S'Zc'
p5166
sS'DS-SXT109'
p5167
S'Zc'
p5168
sS'HC-HE N720E'
p5169
S'Zb'
p5170
sS'XY-Q903'
p5171
S'Ze'
p5172
sS'HC-HE E760'
p5173
S'Zb'
p5174
sS'HW-HUAWEI C2856'
p5175
S'Aa'
p5176
sS'HW-HUAWEI C2857'
p5177
S'Aa'
p5178
sS'YL-Coolpad 5876'
p5179
S'Lb'
p5180
sS'ZTE-BV0710'
p5181
S'Ic'
p5182
sS'ZZB-palmd Z5230'
p5183
S'Za'
p5184
sS'YL-Coolpad 5872'
p5185
S'Lc'
p5186
sS'YL-Coolpad 5870'
p5187
S'Lb'
p5188
sS'TLT-E12'
p5189
S'Zb'
p5190
sS'SHT-HTT H108'
p5191
S'Za'
p5192
sS'YFZ-EC13'
p5193
S'Zb'
p5194
sS'YFZ-EC12'
p5195
S'Za'
p5196
sS'NCM-NEC909e'
p5197
S'Ze'
p5198
sS'ZHT-HT 510'
p5199
S'Za'
p5200
sS'TG-Leimone 1680'
p5201
S'Za'
p5202
sS'SCH-SM C5000'
p5203
S'Dd'
p5204
sS'SJX-CIYO V100'
p5205
S'Za'
p5206
sS'HW-PE CL00'
p5207
S'Ad'
p5208
sS'ZTE-C580'
p5209
S'Ib'
p5210
sS'GX-KINGSUN S2'
p5211
S'Zc'
p5212
sS'GX-KINGSUN S5'
p5213
S'Za'
p5214
sS'HS-C558+'
p5215
S'Tb'
p5216
sS'GX-KINGSUN S6'
p5217
S'Zb'
p5218
sS'GX-KINGSUN S9'
p5219
S'Zc'
p5220
sS'GX-KINGSUN S8'
p5221
S'Zb'
p5222
sS'ZBH-BIHEE C30A'
p5223
S'Za'
p5224
sS'SZX-ZTE C GA300'
p5225
S'Ia'
p5226
sS'ZTE-N881D'
p5227
S'Zc'
p5228
sS'ZTE-N881E'
p5229
S'Ib'
p5230
sS'ZTE-N881F'
p5231
S'Ib'
p5232
sS'GIO-GIONEE GN9011'
p5233
S'Rd'
p5234
sS'LNV-Lenovo A320e'
p5235
S'Ja'
p5236
sS'FDT-C600'
p5237
S'Za'
p5238
sS'ZYT-ZY 10'
p5239
S'Zb'
p5240
sS'YL-Coolpad S66'
p5241
S'Lb'
p5242
sS'GX-DF820'
p5243
S'Zb'
p5244
sS'LG-KX11'
p5245
S'Xa'
p5246
sS'SJX-CIYO C660'
p5247
S'Za'
p5248
sS'PXX-i330v'
p5249
S'Zb'
p5250
sS'SHT-H309'
p5251
S'Za'
p5252
sS'CW-Skyworth PE89'
p5253
S'Wb'
p5254
sS'HW-C2601'
p5255
S'Aa'
p5256
sS'BLW-VL650C'
p5257
S'Za'
p5258
sS'QL-CHER A709'
p5259
S'Zb'
p5260
sS'HW-C2600'
p5261
S'Aa'
p5262
sS'SAF-Philips D812'
p5263
S'Zd'
p5264
sS'QJ-i6C'
p5265
S'Zd'
p5266
sS'GX-EF90'
p5267
S'Za'
p5268
sS'TY-E608'
p5269
S'Zd'
p5270
sS'JHC-JH101'
p5271
S'Zd'
p5272
sS'SSY-Soaye E6'
p5273
S'Zb'
p5274
sS'YFZ-EPHONE E51C'
p5275
S'Za'
p5276
sS'JP-i520'
p5277
S'Zb'
p5278
sS'HL-E550B'
p5279
S'Zc'
p5280
sS'TLT-LT 823'
p5281
S'Za'
p5282
sS'KMO-COMIO C1'
p5283
S'Zb'
p5284
sS'KMO-COMIO C2'
p5285
S'Zb'
p5286
sS'HW-HUAWEI G730 C00'
p5287
S'Ac'
p5288
sS'PXX-C230v'
p5289
S'Za'
p5290
sS'JST-J868'
p5291
S'Za'
p5292
sS'YCT-TE800S'
p5293
S'Za'
p5294
sS'KON-308'
p5295
S'Za'
p5296
sS'TL-Twin T90'
p5297
S'Zb'
p5298
sS'LNV-E300C'
p5299
S'Ja'
p5300
sS'HTC-S710d'
p5301
S'Nd'
p5302
sS'HS-C117'
p5303
S'Ta'
p5304
sS'HS-C118'
p5305
S'Ta'
p5306
sS'CHL-A518C'
p5307
S'Ub'
p5308
sS'TL-Twin T99'
p5309
S'Za'
p5310
sS'ZBH-BIHEE I8'
p5311
S'Za'
p5312
sS'HQK-KX A51'
p5313
S'Za'
p5314
sS'SCH-E329'
p5315
S'Da'
p5316
sS'ZBH-BIHEE I6'
p5317
S'Za'
p5318
sS'DPD-S900c+'
p5319
S'Zd'
p5320
sS'CW-Skyworth Q86'
p5321
S'Wa'
p5322
sS'SCH-i819'
p5323
S'Dc'
p5324
sS'HW-EVA AL10'
p5325
S'Ae'
p5326
sS'HC-PAD002'
p5327
S'Zc'
p5328
sS'CW-Skyworth Q89'
p5329
S'Wa'
p5330
sS'HW-HUAWEI RIO CL00'
p5331
S'Ac'
p5332
sS'XL-Namo i9300'
p5333
S'Zc'
p5334
sS'ZTE-C79'
p5335
S'Id'
p5336
sS'VIV-vivo Y937'
p5337
S'Qc'
p5338
sS'RJ-RZ Q1'
p5339
S'Zb'
p5340
sS'WB-V HOPE E106C'
p5341
S'Za'
p5342
sS'RJ-RZ Q5'
p5343
S'Zb'
p5344
sS'ZTE-Q301C'
p5345
S'Ib'
p5346
sS'SMQ-EA6800'
p5347
S'Zc'
p5348
sS'YL-Coolpad 5270'
p5349
S'La'
p5350
sS'YL-D21'
p5351
S'Lc'
p5352
sS'MZ-M463C'
p5353
S'Fc'
p5354
sS'YCT-TE530'
p5355
S'Za'
p5356
sS'YL-Coolpad Y82 520'
p5357
S'Lc'
p5358
sS'OKW-A119'
p5359
S'Za'
p5360
sS'OKW-A118'
p5361
S'Za'
p5362
sS'OKW-A117'
p5363
S'Za'
p5364
sS'YL-Coolpad 7295C C00'
p5365
S'Lc'
p5366
sS'OKW-A115'
p5367
S'Za'
p5368
sS'MT-MP1503'
p5369
S'Md'
p5370
sS'XMP-2015022'
p5371
S'Ee'
p5372
sS'HS-EG59'
p5373
S'Tb'
p5374
sS'BLW-VD315'
p5375
S'Za'
p5376
sS'JB-PC108'
p5377
S'Zb'
p5378
sS'YX-YUSUN E22'
p5379
S'Za'
p5380
sS'YX-YUSUN E21'
p5381
S'Za'
p5382
sS'YX-YUSUN E20'
p5383
S'Za'
p5384
sS'HC-HE E899'
p5385
S'Zb'
p5386
sS'LNV-E260C'
p5387
S'Ja'
p5388
sS'GX-E920'
p5389
S'Za'
p5390
sS'YX-YUSUN E29'
p5391
S'Za'
p5392
sS'BLW-VE3000'
p5393
S'Za'
p5394
sS'SSY-Soaye E9'
p5395
S'Zc'
p5396
sS'HS-E968'
p5397
S'Tb'
p5398
sS'LG-KX236'
p5399
S'Zc'
p5400
sS'YL-Coolpad 5210S'
p5401
S'La'
p5402
sS'SM-Kingpad E306'
p5403
S'Za'
p5404
sS'BGS-BG55'
p5405
S'Za'
p5406
sS'GX-CF58'
p5407
S'Za'
p5408
sS'XZQ-CB EG218'
p5409
S'Zb'
p5410
sS'HW-ATH CL00'
p5411
S'Ac'
p5412
sS'LNV-Lenovo P690e'
p5413
S'Jc'
p5414
sS'PXX-C630Lv'
p5415
S'Za'
p5416
sS'SAF-Philips D822'
p5417
S'Zd'
p5418
s.